

Microchip MPLAB XC8 Assembler V2.20 build 20200408173844 
                                                                                               Mon May 11 11:18:34 2026

Microchip MPLAB XC8 C Compiler v2.20 (Free license) build 20200408173844 Og1 
     1                           	processor	16F883
     2                           	pagewidth 120
     3                           	opt	flic
     4                           	psect	idataCOMMON,global,class=CODE,delta=2,noexec
     5                           	psect	idataBANK0,global,class=CODE,delta=2,noexec
     6                           	psect	strings,global,class=STRING,delta=2,noexec
     7                           	psect	cinit,global,class=CODE,merge=1,delta=2
     8                           	psect	bssCOMMON,global,class=COMMON,space=1,delta=1,noexec
     9                           	psect	dataCOMMON,global,class=COMMON,space=1,delta=1,noexec
    10                           	psect	bssBANK0,global,class=BANK0,space=1,delta=1,noexec
    11                           	psect	dataBANK0,global,class=BANK0,space=1,delta=1,noexec
    12                           	psect	inittext,global,class=CODE,delta=2
    13                           	psect	clrtext,global,class=CODE,delta=2
    14                           	psect	cstackCOMMON,global,class=COMMON,space=1,delta=1,noexec
    15                           	psect	cstackBANK0,global,class=BANK0,space=1,delta=1,noexec
    16                           	psect	maintext,global,class=CODE,split=1,delta=2
    17                           	psect	text1,local,class=CODE,merge=1,delta=2
    18                           	psect	text2,local,class=CODE,merge=1,delta=2
    19                           	psect	text3,local,class=CODE,merge=1,delta=2
    20                           	psect	text4,local,class=CODE,merge=1,delta=2
    21                           	psect	text5,local,class=CODE,merge=1,delta=2
    22                           	psect	text6,local,class=CODE,merge=1,delta=2
    23                           	psect	text7,local,class=CODE,merge=1,delta=2
    24                           	psect	text8,local,class=CODE,merge=1,delta=2
    25                           	psect	text9,local,class=CODE,merge=1,delta=2,group=1
    26                           	psect	text10,local,class=CODE,merge=1,delta=2,group=1
    27                           	psect	text11,local,class=CODE,merge=1,delta=2,group=1
    28                           	psect	text12,local,class=CODE,merge=1,delta=2
    29                           	psect	text13,local,class=CODE,merge=1,delta=2
    30                           	psect	intentry,global,class=CODE,delta=2
    31                           	psect	text14,local,class=CODE,merge=1,delta=2
    32                           	psect	config,global,abs,ovrld,class=CONFIG,space=4,delta=2,noexec
    33                           	dabs	1,0x7E,2
    34  0000                     
    35                           ; Version 2.20
    36                           ; Generated 09/04/2020 GMT
    37                           ; 
    38                           ; Copyright © 2020, Microchip Technology Inc. and its subsidiaries ("Microchip")
    39                           ; All rights reserved.
    40                           ; 
    41                           ; This software is developed by Microchip Technology Inc. and its subsidiaries ("Microch
      +                          ip").
    42                           ; 
    43                           ; Redistribution and use in source and binary forms, with or without modification, are
    44                           ; permitted provided that the following conditions are met:
    45                           ; 
    46                           ;     1. Redistributions of source code must retain the above copyright notice, this lis
      +                          t of
    47                           ;        conditions and the following disclaimer.
    48                           ; 
    49                           ;     2. Redistributions in binary form must reproduce the above copyright notice, this 
      +                          list
    50                           ;        of conditions and the following disclaimer in the documentation and/or other
    51                           ;        materials provided with the distribution.
    52                           ; 
    53                           ;     3. Microchip's name may not be used to endorse or promote products derived from th
      +                          is
    54                           ;        software without specific prior written permission.
    55                           ; 
    56                           ; THIS SOFTWARE IS PROVIDED BY MICROCHIP "AS IS" AND ANY EXPRESS OR IMPLIED WARRANTIES,
    57                           ; INCLUDING, BUT NOT LIMITED TO, THE IMPLIED WARRANTIES OF MERCHANTABILITY AND FITNESS F
      +                          OR
    58                           ; PURPOSE ARE DISCLAIMED.  IN NO EVENT SHALL MICROCHIP BE LIABLE FOR ANY DIRECT, INDIREC
      +                          T,
    59                           ; INCIDENTAL, SPECIAL, EXEMPLARY, OR CONSEQUENTIAL DAMAGES (INCLUDING BUT NOT LIMITED TO
    60                           ; PROCUREMENT OF SUBSTITUTE GOODS OR SERVICES; LOSS OF USE, DATA OR PROFITS; OR BUSINESS
    61                           ; INTERRUPTION) HOWSOEVER CAUSED AND ON ANY THEORY OF LIABILITY, WHETHER IN CONTRACT, ST
      +                          RICT
    62                           ; LIABILITY, OR TORT (INCLUDING NEGLIGENCE OR OTHERWISE) ARISING IN ANY WAY OUT OF THE U
      +                          SE OF
    63                           ; THIS SOFTWARE, EVEN IF ADVISED OF THE POSSIBILITY OF SUCH DAMAGE.
    64                           ; 
    65                           ; 
    66                           ; Code-generator required, PIC16F883 Definitions
    67                           ; 
    68                           ; SFR Addresses
    69  0000                     	;# 
    70  0001                     	;# 
    71  0002                     	;# 
    72  0003                     	;# 
    73  0004                     	;# 
    74  0005                     	;# 
    75  0006                     	;# 
    76  0007                     	;# 
    77  0009                     	;# 
    78  000A                     	;# 
    79  000B                     	;# 
    80  000C                     	;# 
    81  000D                     	;# 
    82  000E                     	;# 
    83  000E                     	;# 
    84  000F                     	;# 
    85  0010                     	;# 
    86  0011                     	;# 
    87  0012                     	;# 
    88  0013                     	;# 
    89  0014                     	;# 
    90  0015                     	;# 
    91  0015                     	;# 
    92  0016                     	;# 
    93  0017                     	;# 
    94  0018                     	;# 
    95  0019                     	;# 
    96  001A                     	;# 
    97  001B                     	;# 
    98  001B                     	;# 
    99  001C                     	;# 
   100  001D                     	;# 
   101  001E                     	;# 
   102  001F                     	;# 
   103  0081                     	;# 
   104  0085                     	;# 
   105  0086                     	;# 
   106  0087                     	;# 
   107  0089                     	;# 
   108  008C                     	;# 
   109  008D                     	;# 
   110  008E                     	;# 
   111  008F                     	;# 
   112  0090                     	;# 
   113  0091                     	;# 
   114  0092                     	;# 
   115  0093                     	;# 
   116  0093                     	;# 
   117  0093                     	;# 
   118  0094                     	;# 
   119  0095                     	;# 
   120  0096                     	;# 
   121  0097                     	;# 
   122  0098                     	;# 
   123  0099                     	;# 
   124  009A                     	;# 
   125  009B                     	;# 
   126  009C                     	;# 
   127  009D                     	;# 
   128  009E                     	;# 
   129  009F                     	;# 
   130  0105                     	;# 
   131  0107                     	;# 
   132  0108                     	;# 
   133  0109                     	;# 
   134  010C                     	;# 
   135  010C                     	;# 
   136  010D                     	;# 
   137  010E                     	;# 
   138  010F                     	;# 
   139  0185                     	;# 
   140  0187                     	;# 
   141  0188                     	;# 
   142  0189                     	;# 
   143  018C                     	;# 
   144  018D                     	;# 
   145  0000                     	;# 
   146  0001                     	;# 
   147  0002                     	;# 
   148  0003                     	;# 
   149  0004                     	;# 
   150  0005                     	;# 
   151  0006                     	;# 
   152  0007                     	;# 
   153  0009                     	;# 
   154  000A                     	;# 
   155  000B                     	;# 
   156  000C                     	;# 
   157  000D                     	;# 
   158  000E                     	;# 
   159  000E                     	;# 
   160  000F                     	;# 
   161  0010                     	;# 
   162  0011                     	;# 
   163  0012                     	;# 
   164  0013                     	;# 
   165  0014                     	;# 
   166  0015                     	;# 
   167  0015                     	;# 
   168  0016                     	;# 
   169  0017                     	;# 
   170  0018                     	;# 
   171  0019                     	;# 
   172  001A                     	;# 
   173  001B                     	;# 
   174  001B                     	;# 
   175  001C                     	;# 
   176  001D                     	;# 
   177  001E                     	;# 
   178  001F                     	;# 
   179  0081                     	;# 
   180  0085                     	;# 
   181  0086                     	;# 
   182  0087                     	;# 
   183  0089                     	;# 
   184  008C                     	;# 
   185  008D                     	;# 
   186  008E                     	;# 
   187  008F                     	;# 
   188  0090                     	;# 
   189  0091                     	;# 
   190  0092                     	;# 
   191  0093                     	;# 
   192  0093                     	;# 
   193  0093                     	;# 
   194  0094                     	;# 
   195  0095                     	;# 
   196  0096                     	;# 
   197  0097                     	;# 
   198  0098                     	;# 
   199  0099                     	;# 
   200  009A                     	;# 
   201  009B                     	;# 
   202  009C                     	;# 
   203  009D                     	;# 
   204  009E                     	;# 
   205  009F                     	;# 
   206  0105                     	;# 
   207  0107                     	;# 
   208  0108                     	;# 
   209  0109                     	;# 
   210  010C                     	;# 
   211  010C                     	;# 
   212  010D                     	;# 
   213  010E                     	;# 
   214  010F                     	;# 
   215  0185                     	;# 
   216  0187                     	;# 
   217  0188                     	;# 
   218  0189                     	;# 
   219  018C                     	;# 
   220  018D                     	;# 
   221  0000                     	;# 
   222  0001                     	;# 
   223  0002                     	;# 
   224  0003                     	;# 
   225  0004                     	;# 
   226  0005                     	;# 
   227  0006                     	;# 
   228  0007                     	;# 
   229  0009                     	;# 
   230  000A                     	;# 
   231  000B                     	;# 
   232  000C                     	;# 
   233  000D                     	;# 
   234  000E                     	;# 
   235  000E                     	;# 
   236  000F                     	;# 
   237  0010                     	;# 
   238  0011                     	;# 
   239  0012                     	;# 
   240  0013                     	;# 
   241  0014                     	;# 
   242  0015                     	;# 
   243  0015                     	;# 
   244  0016                     	;# 
   245  0017                     	;# 
   246  0018                     	;# 
   247  0019                     	;# 
   248  001A                     	;# 
   249  001B                     	;# 
   250  001B                     	;# 
   251  001C                     	;# 
   252  001D                     	;# 
   253  001E                     	;# 
   254  001F                     	;# 
   255  0081                     	;# 
   256  0085                     	;# 
   257  0086                     	;# 
   258  0087                     	;# 
   259  0089                     	;# 
   260  008C                     	;# 
   261  008D                     	;# 
   262  008E                     	;# 
   263  008F                     	;# 
   264  0090                     	;# 
   265  0091                     	;# 
   266  0092                     	;# 
   267  0093                     	;# 
   268  0093                     	;# 
   269  0093                     	;# 
   270  0094                     	;# 
   271  0095                     	;# 
   272  0096                     	;# 
   273  0097                     	;# 
   274  0098                     	;# 
   275  0099                     	;# 
   276  009A                     	;# 
   277  009B                     	;# 
   278  009C                     	;# 
   279  009D                     	;# 
   280  009E                     	;# 
   281  009F                     	;# 
   282  0105                     	;# 
   283  0107                     	;# 
   284  0108                     	;# 
   285  0109                     	;# 
   286  010C                     	;# 
   287  010C                     	;# 
   288  010D                     	;# 
   289  010E                     	;# 
   290  010F                     	;# 
   291  0185                     	;# 
   292  0187                     	;# 
   293  0188                     	;# 
   294  0189                     	;# 
   295  018C                     	;# 
   296  018D                     	;# 
   297  0000                     	;# 
   298  0001                     	;# 
   299  0002                     	;# 
   300  0003                     	;# 
   301  0004                     	;# 
   302  0005                     	;# 
   303  0006                     	;# 
   304  0007                     	;# 
   305  0009                     	;# 
   306  000A                     	;# 
   307  000B                     	;# 
   308  000C                     	;# 
   309  000D                     	;# 
   310  000E                     	;# 
   311  000E                     	;# 
   312  000F                     	;# 
   313  0010                     	;# 
   314  0011                     	;# 
   315  0012                     	;# 
   316  0013                     	;# 
   317  0014                     	;# 
   318  0015                     	;# 
   319  0015                     	;# 
   320  0016                     	;# 
   321  0017                     	;# 
   322  0018                     	;# 
   323  0019                     	;# 
   324  001A                     	;# 
   325  001B                     	;# 
   326  001B                     	;# 
   327  001C                     	;# 
   328  001D                     	;# 
   329  001E                     	;# 
   330  001F                     	;# 
   331  0081                     	;# 
   332  0085                     	;# 
   333  0086                     	;# 
   334  0087                     	;# 
   335  0089                     	;# 
   336  008C                     	;# 
   337  008D                     	;# 
   338  008E                     	;# 
   339  008F                     	;# 
   340  0090                     	;# 
   341  0091                     	;# 
   342  0092                     	;# 
   343  0093                     	;# 
   344  0093                     	;# 
   345  0093                     	;# 
   346  0094                     	;# 
   347  0095                     	;# 
   348  0096                     	;# 
   349  0097                     	;# 
   350  0098                     	;# 
   351  0099                     	;# 
   352  009A                     	;# 
   353  009B                     	;# 
   354  009C                     	;# 
   355  009D                     	;# 
   356  009E                     	;# 
   357  009F                     	;# 
   358  0105                     	;# 
   359  0107                     	;# 
   360  0108                     	;# 
   361  0109                     	;# 
   362  010C                     	;# 
   363  010C                     	;# 
   364  010D                     	;# 
   365  010E                     	;# 
   366  010F                     	;# 
   367  0185                     	;# 
   368  0187                     	;# 
   369  0188                     	;# 
   370  0189                     	;# 
   371  018C                     	;# 
   372  018D                     	;# 
   373                           
   374                           	psect	idataCOMMON
   375  0D62                     __pidataCOMMON:
   376                           
   377                           ;initializer for PWM_SetFrequency@F1247
   378  0D62  3401               	retlw	1
   379  0D63  3404               	retlw	4
   380  0D64  3410               	retlw	16
   381                           
   382                           ;initializer for Display_Segment@count
   383  0D65  3401               	retlw	1
   384                           
   385                           	psect	idataBANK0
   386  0D77                     __pidataBANK0:
   387                           
   388                           ;initializer for PWM_SetFrequency@F1249
   389  0D77  3400               	retlw	0
   390  0D78  3401               	retlw	1
   391  0D79  3402               	retlw	2
   392                           
   393                           ;initializer for PWM_Init@F1233
   394  0D7A  3400               	retlw	0
   395  0D7B  3401               	retlw	1
   396  0D7C  3402               	retlw	2
   397                           
   398                           ;initializer for PWM_Init@F1231
   399  0D7D  3401               	retlw	1
   400  0D7E  3404               	retlw	4
   401  0D7F  3410               	retlw	16
   402                           
   403                           ;initializer for _Display_Array
   404  0D80  3401               	retlw	1
   405  0D81  3402               	retlw	2
   406  0D82  3403               	retlw	3
   407  0D83  3413               	retlw	19
   408                           
   409                           	psect	strings
   410  0800                     __pstrings:
   411  0800                     stringtab:
   412  0800                     __stringtab:
   413  0800                     stringcode:	
   414                           ;	String table - string pointers are 1 byte each
   415                           
   416  0800                     stringdir:
   417  0800  3008               	movlw	high stringdir
   418  0801  008A               	movwf	10
   419  0802  0804               	movf	4,w
   420  0803  0A84               	incf	4,f
   421  0804  0782               	addwf	2,f
   422  0805                     __stringbase:
   423  0805  3400               	retlw	0
   424  0806                     __end_of__stringtab:
   425  0806                     _Segment_Tab:
   426  0806  34FA               	retlw	250
   427  0807  3482               	retlw	130
   428  0808  34B9               	retlw	185
   429  0809  34AB               	retlw	171
   430  080A  34C3               	retlw	195
   431  080B  346B               	retlw	107
   432  080C  347B               	retlw	123
   433  080D  34A2               	retlw	162
   434  080E  34FB               	retlw	251
   435  080F  34EB               	retlw	235
   436  0810  341B               	retlw	27
   437  0811  341A               	retlw	26
   438  0812  3411               	retlw	17
   439  0813  349B               	retlw	155
   440  0814  3401               	retlw	1
   441  0815  346B               	retlw	107
   442  0816  34F1               	retlw	241
   443  0817  3458               	retlw	88
   444  0818  3410               	retlw	16
   445  0819  3430               	retlw	48
   446  081A  3470               	retlw	112
   447  081B  34F0               	retlw	240
   448  081C  3408               	retlw	8
   449  081D  3400               	retlw	0
   450  081E                     __end_of_Segment_Tab:
   451  001D                     _CCP2CON	set	29
   452  001B                     _CCPR2L	set	27
   453  0012                     _T2CON	set	18
   454  0001                     _TMR0	set	1
   455  0006                     _PORTB	set	6
   456  000B                     _INTCON	set	11
   457  001E                     _ADRESH	set	30
   458  0007                     _PORTC	set	7
   459  0017                     _CCP1CON	set	23
   460  0015                     _CCPR1L	set	21
   461  001F                     _ADCON0	set	31
   462  0092                     _PR2	set	146
   463  0081                     _OPTION_REG	set	129
   464  009E                     _ADRESL	set	158
   465  009F                     _ADCON1	set	159
   466  0085                     _TRISA	set	133
   467  0087                     _TRISC	set	135
   468  0086                     _TRISB	set	134
   469  0188                     _ANSEL	set	392
   470  0189                     _ANSELH	set	393
   471                           
   472                           	psect	cinit
   473  0013                     start_initialization:	
   474                           ; #config settings
   475                           
   476  0013                     __initialization:
   477                           
   478                           ; Initialize objects allocated to BANK0
   479  0013  1383               	bcf	3,7	;select IRP bank0
   480  0014  306B               	movlw	low (__pdataBANK0+13)
   481  0015  00FD               	movwf	btemp+-1
   482  0016  300D               	movlw	high __pidataBANK0
   483  0017  00FE               	movwf	btemp
   484  0018  3077               	movlw	low __pidataBANK0
   485  0019  00FF               	movwf	btemp+1
   486  001A  305E               	movlw	low __pdataBANK0
   487  001B  0084               	movwf	4
   488  001C  158A  2588  118A   	fcall	init_ram0
   489                           
   490                           ; Initialize objects allocated to COMMON
   491  001F  158A  2562  118A   	fcall	__pidataCOMMON	;fetch initializer
   492  0022  00F7               	movwf	__pdataCOMMON& (0+127)
   493  0023  158A  2563  118A   	fcall	__pidataCOMMON+1	;fetch initializer
   494  0026  00F8               	movwf	(__pdataCOMMON+1)& (0+127)
   495  0027  158A  2564  118A   	fcall	__pidataCOMMON+2	;fetch initializer
   496  002A  00F9               	movwf	(__pdataCOMMON+2)& (0+127)
   497  002B  158A  2565  118A   	fcall	__pidataCOMMON+3	;fetch initializer
   498  002E  00FA               	movwf	(__pdataCOMMON+3)& (0+127)
   499                           
   500                           ; Clear objects allocated to BANK0
   501  002F  304E               	movlw	low __pbssBANK0
   502  0030  0084               	movwf	4
   503  0031  305E               	movlw	low (__pbssBANK0+16)
   504  0032  158A  2566  118A   	fcall	clear_ram0
   505                           
   506                           ; Clear objects allocated to COMMON
   507  0035  01FB               	clrf	__pbssCOMMON& (0+127)
   508  0036  01FC               	clrf	(__pbssCOMMON+1)& (0+127)
   509  0037  01FD               	clrf	(__pbssCOMMON+2)& (0+127)
   510  0038                     end_of_initialization:	
   511                           ;End of C runtime variable initialization code
   512                           
   513  0038                     __end_of__initialization:
   514  0038  0183               	clrf	3
   515  0039  158A  2E07         	ljmp	_main	;jump to C main() function
   516                           
   517                           	psect	bssCOMMON
   518  007B                     __pbssCOMMON:
   519  007B                     ISR@Display_Count:
   520  007B                     	ds	2
   521  007D                     _Flag:
   522  007D                     	ds	1
   523                           
   524                           	psect	dataCOMMON
   525  0077                     __pdataCOMMON:
   526  0077                     PWM_SetFrequency@F1247:
   527  0077                     	ds	3
   528  007A                     Display_Segment@count:
   529  007A                     	ds	1
   530                           
   531                           	psect	bssBANK0
   532  004E                     __pbssBANK0:
   533  004E                     _Display_Current:
   534  004E                     	ds	2
   535  0050                     _Display_Volt:
   536  0050                     	ds	2
   537  0052                     _AD_Value:
   538  0052                     	ds	2
   539  0054                     _PWM_Value:
   540  0054                     	ds	2
   541  0056                     _Display_Change:
   542  0056                     	ds	1
   543  0057                     _State:
   544  0057                     	ds	1
   545  0058                     _SolarFlag:
   546  0058                     	ds	1
   547  0059                     _PWM_1:
   548  0059                     	ds	5
   549                           
   550                           	psect	dataBANK0
   551  005E                     __pdataBANK0:
   552  005E                     PWM_SetFrequency@F1249:
   553  005E                     	ds	3
   554  0061                     PWM_Init@F1233:
   555  0061                     	ds	3
   556  0064                     PWM_Init@F1231:
   557  0064                     	ds	3
   558  0067                     _Display_Array:
   559  0067                     	ds	4
   560                           
   561                           	psect	inittext
   562  0D84                     init_fetch0:	
   563                           ;	Called with low address in FSR and high address in W
   564                           
   565  0D84  087E               	movf	btemp,w
   566  0D85  008A               	movwf	10
   567  0D86  087F               	movf	btemp+1,w
   568  0D87  0082               	movwf	2
   569  0D88                     init_ram0:	
   570                           ;Called with:
   571                           ;	high address of idata address in btemp 
   572                           ;	low address of idata address in btemp+1 
   573                           ;	low address of data in FSR
   574                           ;	high address + 1 of data in btemp-1
   575                           
   576  0D88  158A  2584  158A   	fcall	init_fetch0
   577  0D8B  0080               	movwf	0
   578  0D8C  0A84               	incf	4,f
   579  0D8D  0804               	movf	4,w
   580  0D8E  067D               	xorwf	btemp+-1,w
   581  0D8F  1903               	btfsc	3,2
   582  0D90  3400               	retlw	0
   583  0D91  0AFF               	incf	btemp+1,f
   584  0D92  1903               	btfsc	3,2
   585  0D93  0AFE               	incf	btemp,f
   586  0D94  2D88               	goto	init_ram0
   587                           
   588                           	psect	clrtext
   589  0D66                     clear_ram0:	
   590                           ;	Called with FSR containing the base address, and
   591                           ;	W with the last address+1
   592                           
   593  0D66  0064               	clrwdt	;clear the watchdog before getting into this loop
   594  0D67                     clrloop0:
   595  0D67  0180               	clrf	0	;clear RAM location pointed to by FSR
   596  0D68  0A84               	incf	4,f	;increment pointer
   597  0D69  0604               	xorwf	4,w	;XOR with final address
   598  0D6A  1903               	btfsc	3,2	;have we reached the end yet?
   599  0D6B  3400               	retlw	0	;all done for this memory range, return
   600  0D6C  0604               	xorwf	4,w	;XOR again to restore value
   601  0D6D  2D67               	goto	clrloop0	;do the next byte
   602                           
   603                           	psect	cstackCOMMON
   604  0070                     __pcstackCOMMON:
   605  0070                     ?_TIM0_init:
   606  0070                     ?_TIM0_Start:	
   607                           ; 1 bytes @ 0x0
   608                           
   609  0070                     ?_PWM_Init:	
   610                           ; 1 bytes @ 0x0
   611                           
   612  0070                     ?_PWM_Start:	
   613                           ; 1 bytes @ 0x0
   614                           
   615  0070                     ?_WaitCharge_Function:	
   616                           ; 1 bytes @ 0x0
   617                           
   618  0070                     ?_CurrentCharge_Function:	
   619                           ; 1 bytes @ 0x0
   620                           
   621  0070                     ?_VoltCharge_Function:	
   622                           ; 1 bytes @ 0x0
   623                           
   624  0070                     ?_FullCharge_Function:	
   625                           ; 1 bytes @ 0x0
   626                           
   627  0070                     ?_Display_Segment:	
   628                           ; 1 bytes @ 0x0
   629                           
   630  0070                     ??_Display_Segment:	
   631                           ; 1 bytes @ 0x0
   632                           
   633  0070                     ?_main:	
   634                           ; 1 bytes @ 0x0
   635                           
   636  0070                     ?_ISR:	
   637                           ; 1 bytes @ 0x0
   638                           
   639                           
   640                           ; 1 bytes @ 0x0
   641  0070                     	ds	2
   642  0072                     Display_Segment@Display_Array:
   643                           
   644                           ; 1 bytes @ 0x2
   645  0072                     	ds	1
   646  0073                     ??_ISR:
   647                           
   648                           ; 1 bytes @ 0x3
   649  0073                     	ds	4
   650                           
   651                           	psect	cstackBANK0
   652  0020                     __pcstackBANK0:
   653  0020                     ??_TIM0_init:
   654  0020                     ??_TIM0_Start:	
   655                           ; 1 bytes @ 0x0
   656                           
   657  0020                     ??_PWM_Start:	
   658                           ; 1 bytes @ 0x0
   659                           
   660  0020                     ?_Data2Array:	
   661                           ; 1 bytes @ 0x0
   662                           
   663  0020                     ?___lmul:	
   664                           ; 1 bytes @ 0x0
   665                           
   666  0020                     Data2Array@data:	
   667                           ; 4 bytes @ 0x0
   668                           
   669  0020                     ___lmul@multiplier:	
   670                           ; 2 bytes @ 0x0
   671                           
   672                           
   673                           ; 4 bytes @ 0x0
   674  0020                     	ds	2
   675  0022                     ??_Data2Array:
   676  0022                     Data2Array@d_Array:	
   677                           ; 1 bytes @ 0x2
   678                           
   679                           
   680                           ; 1 bytes @ 0x2
   681  0022                     	ds	2
   682  0024                     ___lmul@multiplicand:
   683                           
   684                           ; 4 bytes @ 0x4
   685  0024                     	ds	4
   686  0028                     ??___lmul:
   687                           
   688                           ; 1 bytes @ 0x8
   689  0028                     	ds	1
   690  0029                     ___lmul@product:
   691                           
   692                           ; 4 bytes @ 0x9
   693  0029                     	ds	4
   694  002D                     ?___lldiv:
   695  002D                     ?___aldiv:	
   696                           ; 4 bytes @ 0xD
   697                           
   698  002D                     ___lldiv@divisor:	
   699                           ; 4 bytes @ 0xD
   700                           
   701  002D                     ___aldiv@divisor:	
   702                           ; 4 bytes @ 0xD
   703                           
   704                           
   705                           ; 4 bytes @ 0xD
   706  002D                     	ds	4
   707  0031                     ___lldiv@dividend:
   708  0031                     ___aldiv@dividend:	
   709                           ; 4 bytes @ 0x11
   710                           
   711                           
   712                           ; 4 bytes @ 0x11
   713  0031                     	ds	4
   714  0035                     ??___lldiv:
   715  0035                     ??___aldiv:	
   716                           ; 1 bytes @ 0x15
   717                           
   718                           
   719                           ; 1 bytes @ 0x15
   720  0035                     	ds	1
   721  0036                     ___aldiv@counter:
   722  0036                     ___lldiv@quotient:	
   723                           ; 1 bytes @ 0x16
   724                           
   725                           
   726                           ; 4 bytes @ 0x16
   727  0036                     	ds	1
   728  0037                     ___aldiv@sign:
   729                           
   730                           ; 1 bytes @ 0x17
   731  0037                     	ds	1
   732  0038                     ___aldiv@quotient:
   733                           
   734                           ; 4 bytes @ 0x18
   735  0038                     	ds	2
   736  003A                     ___lldiv@counter:
   737                           
   738                           ; 1 bytes @ 0x1A
   739  003A                     	ds	2
   740  003C                     ??_PWM_Init:
   741  003C                     ??_WaitCharge_Function:	
   742                           ; 1 bytes @ 0x1C
   743                           
   744  003C                     ??_CurrentCharge_Function:	
   745                           ; 1 bytes @ 0x1C
   746                           
   747  003C                     ??_VoltCharge_Function:	
   748                           ; 1 bytes @ 0x1C
   749                           
   750  003C                     ??_FullCharge_Function:	
   751                           ; 1 bytes @ 0x1C
   752                           
   753                           
   754                           ; 1 bytes @ 0x1C
   755  003C                     	ds	2
   756  003E                     WaitCharge_Function@Total_Count:
   757  003E                     FullCharge_Function@Total_Count:	
   758                           ; 1 bytes @ 0x1E
   759                           
   760  003E                     PWM_Init@presc:	
   761                           ; 1 bytes @ 0x1E
   762                           
   763  003E                     CurrentCharge_Function@A_To_V:	
   764                           ; 3 bytes @ 0x1E
   765                           
   766  003E                     VoltCharge_Function@A_To_V:	
   767                           ; 4 bytes @ 0x1E
   768                           
   769                           
   770                           ; 4 bytes @ 0x1E
   771  003E                     	ds	1
   772  003F                     WaitCharge_Function@i:
   773  003F                     FullCharge_Function@i:	
   774                           ; 1 bytes @ 0x1F
   775                           
   776                           
   777                           ; 1 bytes @ 0x1F
   778  003F                     	ds	1
   779  0040                     WaitCharge_Function@Volt_Value:
   780  0040                     FullCharge_Function@Volt_Value:	
   781                           ; 2 bytes @ 0x20
   782                           
   783                           
   784                           ; 2 bytes @ 0x20
   785  0040                     	ds	1
   786  0041                     PWM_Init@presc_val:
   787                           
   788                           ; 3 bytes @ 0x21
   789  0041                     	ds	1
   790  0042                     CurrentCharge_Function@Total_Count:
   791  0042                     VoltCharge_Function@Total_Count:	
   792                           ; 1 bytes @ 0x22
   793                           
   794                           
   795                           ; 1 bytes @ 0x22
   796  0042                     	ds	1
   797  0043                     CurrentCharge_Function@C_Count:
   798  0043                     VoltCharge_Function@C_Count:	
   799                           ; 1 bytes @ 0x23
   800                           
   801                           
   802                           ; 1 bytes @ 0x23
   803  0043                     	ds	1
   804  0044                     CurrentCharge_Function@i:
   805  0044                     VoltCharge_Function@i:	
   806                           ; 1 bytes @ 0x24
   807                           
   808  0044                     PWM_Init@Fclk:	
   809                           ; 1 bytes @ 0x24
   810                           
   811                           
   812                           ; 4 bytes @ 0x24
   813  0044                     	ds	1
   814  0045                     CurrentCharge_Function@i_133:
   815  0045                     VoltCharge_Function@i_141:	
   816                           ; 1 bytes @ 0x25
   817                           
   818                           
   819                           ; 1 bytes @ 0x25
   820  0045                     	ds	1
   821  0046                     CurrentCharge_Function@Volt_Value:
   822  0046                     VoltCharge_Function@Volt_Value:	
   823                           ; 2 bytes @ 0x26
   824                           
   825                           
   826                           ; 2 bytes @ 0x26
   827  0046                     	ds	2
   828  0048                     CurrentCharge_Function@Current_Value:
   829  0048                     VoltCharge_Function@Current_Value:	
   830                           ; 2 bytes @ 0x28
   831                           
   832  0048                     PWM_Init@PR2_Val:	
   833                           ; 2 bytes @ 0x28
   834                           
   835                           
   836                           ; 2 bytes @ 0x28
   837  0048                     	ds	2
   838  004A                     PWM_Init@index:
   839                           
   840                           ; 1 bytes @ 0x2A
   841  004A                     	ds	1
   842  004B                     PWM_Init@PWMData:
   843                           
   844                           ; 1 bytes @ 0x2B
   845  004B                     	ds	1
   846  004C                     ??_main:
   847                           
   848                           ; 1 bytes @ 0x2C
   849  004C                     	ds	2
   850                           
   851                           	psect	maintext
   852  0E07                     __pmaintext:	
   853 ;;
   854 ;;Main: autosize = 0, tempsize = 2, incstack = 0, save=0
   855 ;;
   856 ;; *************** function _main *****************
   857 ;; Defined at:
   858 ;;		line 109 in file "Li_ion_main.c"
   859 ;; Parameters:    Size  Location     Type
   860 ;;		None
   861 ;; Auto vars:     Size  Location     Type
   862 ;;		None
   863 ;; Return value:  Size  Location     Type
   864 ;;                  1    wreg      void 
   865 ;; Registers used:
   866 ;;		wreg, fsr0l, fsr0h, status,2, status,0, btemp+1, pclath, cstack
   867 ;; Tracked objects:
   868 ;;		On entry : B00/0
   869 ;;		On exit  : 0/0
   870 ;;		Unchanged: 0/0
   871 ;; Data sizes:     COMMON   BANK0   BANK1   BANK2
   872 ;;      Params:         0       0       0       0
   873 ;;      Locals:         0       0       0       0
   874 ;;      Temps:          0       2       0       0
   875 ;;      Totals:         0       2       0       0
   876 ;;Total ram usage:        2 bytes
   877 ;; Hardware stack levels required when called:    5
   878 ;; This function calls:
   879 ;;		_CurrentCharge_Function
   880 ;;		_FullCharge_Function
   881 ;;		_PWM_Init
   882 ;;		_PWM_Start
   883 ;;		_TIM0_Start
   884 ;;		_TIM0_init
   885 ;;		_VoltCharge_Function
   886 ;;		_WaitCharge_Function
   887 ;; This function is called by:
   888 ;;		Startup code after reset
   889 ;; This function uses a non-reentrant model
   890 ;;
   891                           
   892                           
   893                           ;psect for function _main
   894  0E07                     _main:
   895  0E07                     l2839:	
   896                           ;incstack = 0
   897                           ; Regs used in _main: [wreg-fsr0h+status,2+status,0+btemp+1+pclath+cstack]
   898                           
   899                           
   900                           ;Li_ion_main.c: 111:     TIM0_init();
   901  0E07  118A  27EA  158A   	fcall	_TIM0_init
   902                           
   903                           ;Li_ion_main.c: 112:     TIM0_Start();
   904  0E0A  158A  256E  158A   	fcall	_TIM0_Start
   905  0E0D                     l2841:
   906                           
   907                           ;Li_ion_main.c: 113:     ANSELH=0;
   908  0E0D  1683               	bsf	3,5	;RP0=1, select bank3
   909  0E0E  1703               	bsf	3,6	;RP1=1, select bank3
   910  0E0F  0189               	clrf	9	;volatile
   911  0E10                     l2843:
   912                           
   913                           ;Li_ion_main.c: 114:     TRISB =0;
   914  0E10  1683               	bsf	3,5	;RP0=1, select bank1
   915  0E11  1303               	bcf	3,6	;RP1=0, select bank1
   916  0E12  0186               	clrf	6	;volatile
   917  0E13                     l2845:
   918                           
   919                           ;Li_ion_main.c: 115:     TRISC &= ~(0xF0);
   920  0E13  300F               	movlw	15
   921  0E14  00FF               	movwf	btemp+1
   922  0E15  087F               	movf	btemp+1,w
   923  0E16  0587               	andwf	7,f	;volatile
   924  0E17                     l2847:
   925                           
   926                           ;Li_ion_main.c: 117:     TRISC |= (1<<0);
   927  0E17  1407               	bsf	7,0	;volatile
   928  0E18                     l2849:
   929                           
   930                           ;Li_ion_main.c: 119:     ANSEL |= (1<<0);
   931  0E18  1683               	bsf	3,5	;RP0=1, select bank3
   932  0E19  1703               	bsf	3,6	;RP1=1, select bank3
   933  0E1A  1408               	bsf	8,0	;volatile
   934  0E1B                     l2851:
   935                           
   936                           ;Li_ion_main.c: 120:     ANSEL |= (1<<1);
   937  0E1B  1488               	bsf	8,1	;volatile
   938  0E1C                     l2853:
   939                           
   940                           ;Li_ion_main.c: 121:     TRISA |= (1<<0) | (1<<1);
   941  0E1C  3003               	movlw	3
   942  0E1D  00FF               	movwf	btemp+1
   943  0E1E  087F               	movf	btemp+1,w
   944  0E1F  1683               	bsf	3,5	;RP0=1, select bank1
   945  0E20  1303               	bcf	3,6	;RP1=0, select bank1
   946  0E21  0485               	iorwf	5,f	;volatile
   947  0E22                     l2855:
   948                           
   949                           ;Li_ion_main.c: 122:     ADCON0 |= (2<<6);
   950  0E22  1283               	bcf	3,5	;RP0=0, select bank0
   951  0E23  1303               	bcf	3,6	;RP1=0, select bank0
   952  0E24  179F               	bsf	31,7	;volatile
   953  0E25                     l2857:
   954                           
   955                           ;Li_ion_main.c: 123:     ADCON0 &= ~(0x0F<<2);
   956  0E25  30C3               	movlw	195
   957  0E26  00FF               	movwf	btemp+1
   958  0E27  087F               	movf	btemp+1,w
   959  0E28  059F               	andwf	31,f	;volatile
   960  0E29                     l2859:
   961                           
   962                           ;Li_ion_main.c: 125:     ADCON0 |= (1<<2);
   963  0E29  151F               	bsf	31,2	;volatile
   964  0E2A                     l2861:
   965                           
   966                           ;Li_ion_main.c: 126:     ADCON1 |=(1<<7);
   967  0E2A  1683               	bsf	3,5	;RP0=1, select bank1
   968  0E2B  1303               	bcf	3,6	;RP1=0, select bank1
   969  0E2C  179F               	bsf	31,7	;volatile
   970  0E2D                     l2863:
   971                           
   972                           ;Li_ion_main.c: 127:     ADCON0 |= (1<<0);
   973  0E2D  1283               	bcf	3,5	;RP0=0, select bank0
   974  0E2E  1303               	bcf	3,6	;RP1=0, select bank0
   975  0E2F  141F               	bsf	31,0	;volatile
   976  0E30                     l2865:
   977                           
   978                           ;Li_ion_main.c: 129:     PWM_1.CCP=CCPM1;
   979  0E30  01DD               	clrf	_PWM_1+4
   980  0E31  0ADD               	incf	_PWM_1+4,f
   981  0E32                     l2867:
   982                           
   983                           ;Li_ion_main.c: 130:     PWM_1.Period=1000;
   984  0E32  30E8               	movlw	232
   985  0E33  00D9               	movwf	_PWM_1
   986  0E34  3003               	movlw	3
   987  0E35  00DA               	movwf	_PWM_1+1
   988  0E36                     l2869:
   989                           
   990                           ;Li_ion_main.c: 131:     PWM_1.Ton=0;
   991  0E36  01DB               	clrf	_PWM_1+2
   992  0E37  01DC               	clrf	_PWM_1+3
   993  0E38                     l2871:
   994                           
   995                           ;Li_ion_main.c: 132:     PWM_Init(&PWM_1);
   996  0E38  3059               	movlw	(low (_PWM_1| 0))& (0+255)
   997  0E39  118A  26B9  158A   	fcall	_PWM_Init
   998  0E3C                     l2873:
   999                           
  1000                           ;Li_ion_main.c: 133:     PWM_Start();
  1001  0E3C  158A  255E  158A   	fcall	_PWM_Start
  1002  0E3F  2E51               	goto	l2887
  1003  0E40                     l2875:
  1004                           
  1005                           ;Li_ion_main.c: 139:                 WaitCharge_Function();
  1006  0E40  118A  25BC  158A   	fcall	_WaitCharge_Function
  1007                           
  1008                           ;Li_ion_main.c: 140:                 break;
  1009  0E43  2E51               	goto	l2887
  1010  0E44                     l2877:
  1011                           
  1012                           ;Li_ion_main.c: 142:                 CurrentCharge_Function();
  1013  0E44  118A  2292  158A   	fcall	_CurrentCharge_Function
  1014                           
  1015                           ;Li_ion_main.c: 143:                 break;
  1016  0E47  2E51               	goto	l2887
  1017  0E48                     l2879:
  1018                           
  1019                           ;Li_ion_main.c: 145:                 VoltCharge_Function();
  1020  0E48  118A  203B  158A   	fcall	_VoltCharge_Function
  1021                           
  1022                           ;Li_ion_main.c: 146:                 break;
  1023  0E4B  2E51               	goto	l2887
  1024  0E4C                     l2881:
  1025                           
  1026                           ;Li_ion_main.c: 148:                 FullCharge_Function();
  1027  0E4C  118A  24B0  158A   	fcall	_FullCharge_Function
  1028                           
  1029                           ;Li_ion_main.c: 149:                 break;
  1030  0E4F  2E51               	goto	l2887
  1031  0E50                     l2883:
  1032                           
  1033                           ;Li_ion_main.c: 151:                 State=Wait_Charge;
  1034  0E50  01D7               	clrf	_State
  1035  0E51                     l2887:	
  1036                           ;Li_ion_main.c: 152:                 break;
  1037                           
  1038  0E51  1283               	bcf	3,5	;RP0=0, select bank0
  1039  0E52  1303               	bcf	3,6	;RP1=0, select bank0
  1040  0E53  0857               	movf	_State,w
  1041  0E54  00CC               	movwf	??_main
  1042  0E55  01CD               	clrf	??_main+1
  1043                           
  1044                           ; Switch on 2 bytes has been partitioned into a top level switch of size 1, and 1 sub-sw
      +                          itches
  1045                           ; Switch size 1, requested type "simple"
  1046                           ; Number of cases is 1, Range of values is 0 to 0
  1047                           ; switch strategies available:
  1048                           ; Name         Instructions Cycles
  1049                           ; simple_byte            4     3 (average)
  1050                           ; direct_byte            9     7 (fixed)
  1051                           ; jumptable            260     6 (fixed)
  1052                           ;	Chosen strategy is simple_byte
  1053  0E56  084D               	movf	??_main+1,w
  1054  0E57  3A00               	xorlw	0	; case 0
  1055  0E58  1903               	skipnz
  1056  0E59  2E5B               	goto	l2943
  1057  0E5A  2E50               	goto	l2883
  1058  0E5B                     l2943:
  1059                           
  1060                           ; Switch size 1, requested type "simple"
  1061                           ; Number of cases is 4, Range of values is 0 to 3
  1062                           ; switch strategies available:
  1063                           ; Name         Instructions Cycles
  1064                           ; simple_byte           13     7 (average)
  1065                           ; direct_byte           15     7 (fixed)
  1066                           ; jumptable            260     6 (fixed)
  1067                           ;	Chosen strategy is simple_byte
  1068  0E5B  084C               	movf	??_main,w
  1069  0E5C  3A00               	xorlw	0	; case 0
  1070  0E5D  1903               	skipnz
  1071  0E5E  2E40               	goto	l2875
  1072  0E5F  3A01               	xorlw	1	; case 1
  1073  0E60  1903               	skipnz
  1074  0E61  2E44               	goto	l2877
  1075  0E62  3A03               	xorlw	3	; case 2
  1076  0E63  1903               	skipnz
  1077  0E64  2E48               	goto	l2879
  1078  0E65  3A01               	xorlw	1	; case 3
  1079  0E66  1903               	skipnz
  1080  0E67  2E4C               	goto	l2881
  1081  0E68  2E50               	goto	l2883
  1082  0E69  118A  2811         	ljmp	start
  1083  0E6B                     __end_of_main:
  1084                           
  1085                           	psect	text1
  1086  05BC                     __ptext1:	
  1087 ;; *************** function _WaitCharge_Function *****************
  1088 ;; Defined at:
  1089 ;;		line 158 in file "Li_ion_main.c"
  1090 ;; Parameters:    Size  Location     Type
  1091 ;;		None
  1092 ;; Auto vars:     Size  Location     Type
  1093 ;;  i               1   31[BANK0 ] unsigned char 
  1094 ;;  Volt_Value      2   32[BANK0 ] unsigned int 
  1095 ;;  Total_Count     1   30[BANK0 ] unsigned char 
  1096 ;; Return value:  Size  Location     Type
  1097 ;;                  1    wreg      void 
  1098 ;; Registers used:
  1099 ;;		wreg, fsr0l, fsr0h, status,2, status,0, btemp+1, pclath, cstack
  1100 ;; Tracked objects:
  1101 ;;		On entry : 0/0
  1102 ;;		On exit  : 0/0
  1103 ;;		Unchanged: 0/0
  1104 ;; Data sizes:     COMMON   BANK0   BANK1   BANK2
  1105 ;;      Params:         0       0       0       0
  1106 ;;      Locals:         0       4       0       0
  1107 ;;      Temps:          0       2       0       0
  1108 ;;      Totals:         0       6       0       0
  1109 ;;Total ram usage:        6 bytes
  1110 ;; Hardware stack levels used:    1
  1111 ;; Hardware stack levels required when called:    4
  1112 ;; This function calls:
  1113 ;;		_Data2Array
  1114 ;;		___aldiv
  1115 ;;		___lmul
  1116 ;; This function is called by:
  1117 ;;		_main
  1118 ;; This function uses a non-reentrant model
  1119 ;;
  1120                           
  1121                           
  1122                           ;psect for function _WaitCharge_Function
  1123  05BC                     _WaitCharge_Function:
  1124  05BC                     l2437:	
  1125                           ;incstack = 0
  1126                           ; Regs used in _WaitCharge_Function: [wreg-fsr0h+status,2+status,0+btemp+1+pclath+cstack
      +                          ]
  1127                           
  1128                           
  1129                           ;Li_ion_main.c: 160:     unsigned int Volt_Value=0;
  1130  05BC  1283               	bcf	3,5	;RP0=0, select bank0
  1131  05BD  1303               	bcf	3,6	;RP1=0, select bank0
  1132  05BE  01C0               	clrf	WaitCharge_Function@Volt_Value
  1133  05BF  01C1               	clrf	WaitCharge_Function@Volt_Value+1
  1134                           
  1135                           ;Li_ion_main.c: 161:     char Total_Count=0;
  1136  05C0  01BE               	clrf	WaitCharge_Function@Total_Count
  1137                           
  1138                           ;Li_ion_main.c: 162:     Volt_Value=0;
  1139  05C1  01C0               	clrf	WaitCharge_Function@Volt_Value
  1140  05C2  01C1               	clrf	WaitCharge_Function@Volt_Value+1
  1141                           
  1142                           ;Li_ion_main.c: 163:     PWM_Value=0;
  1143  05C3  01D4               	clrf	_PWM_Value
  1144  05C4  01D5               	clrf	_PWM_Value+1
  1145  05C5                     l2439:
  1146                           
  1147                           ;Li_ion_main.c: 164:     CCPR1L = PWM_Value>>2;
  1148  05C5  0855               	movf	_PWM_Value+1,w
  1149  05C6  00BD               	movwf	??_WaitCharge_Function+1
  1150  05C7  0854               	movf	_PWM_Value,w
  1151  05C8  00BC               	movwf	??_WaitCharge_Function
  1152  05C9  1003               	clrc
  1153  05CA  0CBD               	rrf	??_WaitCharge_Function+1,f
  1154  05CB  0CBC               	rrf	??_WaitCharge_Function,f
  1155  05CC  1003               	clrc
  1156  05CD  0CBD               	rrf	??_WaitCharge_Function+1,f
  1157  05CE  0CBC               	rrf	??_WaitCharge_Function,f
  1158  05CF  083C               	movf	??_WaitCharge_Function,w
  1159  05D0  0095               	movwf	21	;volatile
  1160  05D1                     l2441:
  1161                           
  1162                           ;Li_ion_main.c: 165:     CCP1CON= (PWM_Value &0x3)<<4 |
  1163  05D1  0854               	movf	_PWM_Value,w
  1164  05D2  3903               	andlw	3
  1165  05D3  00BC               	movwf	??_WaitCharge_Function
  1166  05D4  3003               	movlw	3
  1167  05D5                     u2245:
  1168  05D5  1003               	clrc
  1169  05D6  0DBC               	rlf	??_WaitCharge_Function,f
  1170  05D7  3EFF               	addlw	-1
  1171  05D8  1D03               	skipz
  1172  05D9  2DD5               	goto	u2245
  1173  05DA  1003               	clrc
  1174  05DB  0D3C               	rlf	??_WaitCharge_Function,w
  1175  05DC  380C               	iorlw	12
  1176  05DD  0097               	movwf	23	;volatile
  1177                           
  1178                           ;Li_ion_main.c: 167:     while(State==Wait_Charge)
  1179  05DE  2EB3               	goto	l2499
  1180  05DF                     l91:
  1181                           
  1182                           ;Li_ion_main.c: 168:     {;Li_ion_main.c: 169:         if(!(PORTC & (1<<0)))
  1183  05DF  1807               	btfsc	7,0	;volatile
  1184  05E0  2DE2               	goto	u2251
  1185  05E1  2DE3               	goto	u2250
  1186  05E2                     u2251:
  1187  05E2  2DE8               	goto	l2445
  1188  05E3                     u2250:
  1189  05E3                     l2443:
  1190                           
  1191                           ;Li_ion_main.c: 170:         {;Li_ion_main.c: 171:             SolarFlag=1;
  1192  05E3  01D8               	clrf	_SolarFlag
  1193  05E4  0AD8               	incf	_SolarFlag,f
  1194                           
  1195                           ;Li_ion_main.c: 172:             State=Current_Charge;
  1196  05E5  01D7               	clrf	_State
  1197  05E6  0AD7               	incf	_State,f
  1198                           
  1199                           ;Li_ion_main.c: 173:         }
  1200  05E7  2DE9               	goto	l2447
  1201  05E8                     l2445:
  1202                           
  1203                           ;Li_ion_main.c: 175:         {;Li_ion_main.c: 176:             SolarFlag=0;
  1204  05E8  01D8               	clrf	_SolarFlag
  1205  05E9                     l2447:
  1206                           
  1207                           ;Li_ion_main.c: 179:         ADCON0 &= ~(0x0F<<2);
  1208  05E9  30C3               	movlw	195
  1209  05EA  00FF               	movwf	btemp+1
  1210  05EB  087F               	movf	btemp+1,w
  1211  05EC  059F               	andwf	31,f	;volatile
  1212  05ED                     l2449:
  1213                           
  1214                           ;Li_ion_main.c: 180:         ADCON0 |= (1<<2);
  1215  05ED  151F               	bsf	31,2	;volatile
  1216  05EE                     l2451:
  1217                           
  1218                           ;Li_ion_main.c: 181:         AD_Value=0;
  1219  05EE  01D2               	clrf	_AD_Value
  1220  05EF  01D3               	clrf	_AD_Value+1
  1221  05F0                     l2453:
  1222                           
  1223                           ;Li_ion_main.c: 182:         for(char i=0;i<16;i++)
  1224  05F0  01BF               	clrf	WaitCharge_Function@i
  1225  05F1                     l94:
  1226                           
  1227                           ;Li_ion_main.c: 183:         {;Li_ion_main.c: 184:             ADCON0 |= (1<<1);
  1228  05F1  149F               	bsf	31,1	;volatile
  1229  05F2                     l96:	
  1230                           ;Li_ion_main.c: 186:                 ;
  1231                           
  1232                           
  1233                           ;Li_ion_main.c: 185:             while(ADCON0 & (1<<1))
  1234  05F2  189F               	btfsc	31,1	;volatile
  1235  05F3  2DF5               	goto	u2261
  1236  05F4  2DF6               	goto	u2260
  1237  05F5                     u2261:
  1238  05F5  2DF2               	goto	l96
  1239  05F6                     u2260:
  1240  05F6                     l2459:
  1241                           
  1242                           ;Li_ion_main.c: 187:             AD_Value+=(int)ADRESH<<8 | ADRESL;
  1243  05F6  1683               	bsf	3,5	;RP0=1, select bank1
  1244  05F7  1303               	bcf	3,6	;RP1=0, select bank1
  1245  05F8  081E               	movf	30,w	;volatile
  1246  05F9  1283               	bcf	3,5	;RP0=0, select bank0
  1247  05FA  1303               	bcf	3,6	;RP1=0, select bank0
  1248  05FB  07D2               	addwf	_AD_Value,f
  1249  05FC  1803               	skipnc
  1250  05FD  0AD3               	incf	_AD_Value+1,f
  1251  05FE  081E               	movf	30,w	;volatile
  1252  05FF  07D3               	addwf	_AD_Value+1,f
  1253                           
  1254                           ;Li_ion_main.c: 188:             _delay((unsigned long)((1)*(4000000/4000.0)));
  1255  0600  30C7               	movlw	199
  1256  0601  1283               	bcf	3,5	;RP0=0, select bank0
  1257  0602  1303               	bcf	3,6	;RP1=0, select bank0
  1258  0603  00BC               	movwf	??_WaitCharge_Function
  1259  0604                     u2987:
  1260  0604  2E05               	nop2
  1261  0605  0BBC               	decfsz	??_WaitCharge_Function,f
  1262  0606  2E04               	goto	u2987
  1263  0607  2E08               	nop2
  1264  0608  0000               	nop
  1265  0609                     l2461:
  1266                           
  1267                           ;Li_ion_main.c: 189:         }
  1268  0609  3001               	movlw	1
  1269  060A  00FF               	movwf	btemp+1
  1270  060B  087F               	movf	btemp+1,w
  1271  060C  1283               	bcf	3,5	;RP0=0, select bank0
  1272  060D  1303               	bcf	3,6	;RP1=0, select bank0
  1273  060E  07BF               	addwf	WaitCharge_Function@i,f
  1274  060F                     l2463:
  1275  060F  3010               	movlw	16
  1276  0610  023F               	subwf	WaitCharge_Function@i,w
  1277  0611  1C03               	skipc
  1278  0612  2E14               	goto	u2271
  1279  0613  2E15               	goto	u2270
  1280  0614                     u2271:
  1281  0614  2DF1               	goto	l94
  1282  0615                     u2270:
  1283  0615                     l2465:
  1284                           
  1285                           ;Li_ion_main.c: 190:         Volt_Value+=(AD_Value>>4);
  1286  0615  0853               	movf	_AD_Value+1,w
  1287  0616  00BD               	movwf	??_WaitCharge_Function+1
  1288  0617  0852               	movf	_AD_Value,w
  1289  0618  00BC               	movwf	??_WaitCharge_Function
  1290  0619  3004               	movlw	4
  1291  061A                     u2285:
  1292  061A  1003               	clrc
  1293  061B  0CBD               	rrf	??_WaitCharge_Function+1,f
  1294  061C  0CBC               	rrf	??_WaitCharge_Function,f
  1295  061D  3EFF               	addlw	-1
  1296  061E  1D03               	skipz
  1297  061F  2E1A               	goto	u2285
  1298  0620  083C               	movf	??_WaitCharge_Function,w
  1299  0621  07C0               	addwf	WaitCharge_Function@Volt_Value,f
  1300  0622  1803               	skipnc
  1301  0623  0AC1               	incf	WaitCharge_Function@Volt_Value+1,f
  1302  0624  083D               	movf	??_WaitCharge_Function+1,w
  1303  0625  07C1               	addwf	WaitCharge_Function@Volt_Value+1,f
  1304  0626                     l2467:
  1305                           
  1306                           ;Li_ion_main.c: 191:         Total_Count++;
  1307  0626  3001               	movlw	1
  1308  0627  00FF               	movwf	btemp+1
  1309  0628  087F               	movf	btemp+1,w
  1310  0629  07BE               	addwf	WaitCharge_Function@Total_Count,f
  1311  062A                     l2469:
  1312                           
  1313                           ;Li_ion_main.c: 192:         if(Total_Count>=4)
  1314  062A  3004               	movlw	4
  1315  062B  023E               	subwf	WaitCharge_Function@Total_Count,w
  1316  062C  1C03               	skipc
  1317  062D  2E2F               	goto	u2291
  1318  062E  2E30               	goto	u2290
  1319  062F                     u2291:
  1320  062F  2E77               	goto	l2481
  1321  0630                     u2290:
  1322  0630                     l2471:
  1323                           
  1324                           ;Li_ion_main.c: 193:         {;Li_ion_main.c: 194:             Total_Count=0;
  1325  0630  01BE               	clrf	WaitCharge_Function@Total_Count
  1326  0631                     l2473:
  1327                           
  1328                           ;Li_ion_main.c: 195:             Volt_Value=Volt_Value>>2;
  1329  0631  0841               	movf	WaitCharge_Function@Volt_Value+1,w
  1330  0632  00BD               	movwf	??_WaitCharge_Function+1
  1331  0633  0840               	movf	WaitCharge_Function@Volt_Value,w
  1332  0634  00BC               	movwf	??_WaitCharge_Function
  1333  0635  1003               	clrc
  1334  0636  0CBD               	rrf	??_WaitCharge_Function+1,f
  1335  0637  0CBC               	rrf	??_WaitCharge_Function,f
  1336  0638  1003               	clrc
  1337  0639  0CBD               	rrf	??_WaitCharge_Function+1,f
  1338  063A  0CBC               	rrf	??_WaitCharge_Function,f
  1339  063B  083C               	movf	??_WaitCharge_Function,w
  1340  063C  00C0               	movwf	WaitCharge_Function@Volt_Value
  1341  063D  083D               	movf	??_WaitCharge_Function+1,w
  1342  063E  00C1               	movwf	WaitCharge_Function@Volt_Value+1
  1343  063F                     l2475:
  1344                           
  1345                           ;Li_ion_main.c: 196:             Display_Volt=((long)140*Volt_Value)/512;
  1346  063F  3000               	movlw	0
  1347  0640  00B0               	movwf	___aldiv@divisor+3
  1348  0641  3000               	movlw	0
  1349  0642  00AF               	movwf	___aldiv@divisor+2
  1350  0643  3002               	movlw	2
  1351  0644  00AE               	movwf	___aldiv@divisor+1
  1352  0645  3000               	movlw	0
  1353  0646  00AD               	movwf	___aldiv@divisor
  1354  0647  0840               	movf	WaitCharge_Function@Volt_Value,w
  1355  0648  00A0               	movwf	___lmul@multiplier
  1356  0649  0841               	movf	WaitCharge_Function@Volt_Value+1,w
  1357  064A  00A1               	movwf	___lmul@multiplier+1
  1358  064B  01A2               	clrf	___lmul@multiplier+2
  1359  064C  01A3               	clrf	___lmul@multiplier+3
  1360  064D  3000               	movlw	0
  1361  064E  00A7               	movwf	___lmul@multiplicand+3
  1362  064F  3000               	movlw	0
  1363  0650  00A6               	movwf	___lmul@multiplicand+2
  1364  0651  3000               	movlw	0
  1365  0652  00A5               	movwf	___lmul@multiplicand+1
  1366  0653  308C               	movlw	140
  1367  0654  00A4               	movwf	___lmul@multiplicand
  1368  0655  118A  27A2  118A   	fcall	___lmul
  1369  0658  1283               	bcf	3,5	;RP0=0, select bank0
  1370  0659  1303               	bcf	3,6	;RP1=0, select bank0
  1371  065A  0823               	movf	?___lmul+3,w
  1372  065B  00B4               	movwf	___aldiv@dividend+3
  1373  065C  0822               	movf	?___lmul+2,w
  1374  065D  00B3               	movwf	___aldiv@dividend+2
  1375  065E  0821               	movf	?___lmul+1,w
  1376  065F  00B2               	movwf	___aldiv@dividend+1
  1377  0660  0820               	movf	?___lmul,w
  1378  0661  00B1               	movwf	___aldiv@dividend
  1379  0662  158A  2763  118A   	fcall	___aldiv
  1380  0665  1283               	bcf	3,5	;RP0=0, select bank0
  1381  0666  1303               	bcf	3,6	;RP1=0, select bank0
  1382  0667  082E               	movf	?___aldiv+1,w
  1383  0668  00D1               	movwf	_Display_Volt+1
  1384  0669  082D               	movf	?___aldiv,w
  1385  066A  00D0               	movwf	_Display_Volt
  1386  066B                     l2477:
  1387                           
  1388                           ;Li_ion_main.c: 197:             Data2Array(Display_Array,Display_Volt);
  1389  066B  0851               	movf	_Display_Volt+1,w
  1390  066C  00A1               	movwf	Data2Array@data+1
  1391  066D  0850               	movf	_Display_Volt,w
  1392  066E  00A0               	movwf	Data2Array@data
  1393  066F  3067               	movlw	(low (_Display_Array| 0))& (0+255)
  1394  0670  158A  25C9  118A   	fcall	_Data2Array
  1395  0673                     l2479:
  1396                           
  1397                           ;Li_ion_main.c: 198:             Volt_Value=0;
  1398  0673  1283               	bcf	3,5	;RP0=0, select bank0
  1399  0674  1303               	bcf	3,6	;RP1=0, select bank0
  1400  0675  01C0               	clrf	WaitCharge_Function@Volt_Value
  1401  0676  01C1               	clrf	WaitCharge_Function@Volt_Value+1
  1402  0677                     l2481:
  1403                           
  1404                           ;Li_ion_main.c: 200:         if(Display_Volt >=120)
  1405  0677  3000               	movlw	0
  1406  0678  0251               	subwf	_Display_Volt+1,w
  1407  0679  3078               	movlw	120
  1408  067A  1903               	skipnz
  1409  067B  0250               	subwf	_Display_Volt,w
  1410  067C  1C03               	skipc
  1411  067D  2E7F               	goto	u2301
  1412  067E  2E80               	goto	u2300
  1413  067F                     u2301:
  1414  067F  2E85               	goto	l2485
  1415  0680                     u2300:
  1416  0680                     l2483:
  1417                           
  1418                           ;Li_ion_main.c: 201:         {;Li_ion_main.c: 202:             Display_Array[3] = 21;
  1419  0680  3015               	movlw	21
  1420  0681  00FF               	movwf	btemp+1
  1421  0682  087F               	movf	btemp+1,w
  1422  0683  00EA               	movwf	_Display_Array+3
  1423                           
  1424                           ;Li_ion_main.c: 203:         }
  1425  0684  2EB3               	goto	l2499
  1426  0685                     l2485:
  1427  0685  3000               	movlw	0
  1428  0686  0251               	subwf	_Display_Volt+1,w
  1429  0687  3072               	movlw	114
  1430  0688  1903               	skipnz
  1431  0689  0250               	subwf	_Display_Volt,w
  1432  068A  1C03               	skipc
  1433  068B  2E8D               	goto	u2311
  1434  068C  2E8E               	goto	u2310
  1435  068D                     u2311:
  1436  068D  2E93               	goto	l2489
  1437  068E                     u2310:
  1438  068E                     l2487:
  1439                           
  1440                           ;Li_ion_main.c: 205:         {;Li_ion_main.c: 206:             Display_Array[3] = 20;
  1441  068E  3014               	movlw	20
  1442  068F  00FF               	movwf	btemp+1
  1443  0690  087F               	movf	btemp+1,w
  1444  0691  00EA               	movwf	_Display_Array+3
  1445                           
  1446                           ;Li_ion_main.c: 207:         }
  1447  0692  2EB3               	goto	l2499
  1448  0693                     l2489:
  1449  0693  3000               	movlw	0
  1450  0694  0251               	subwf	_Display_Volt+1,w
  1451  0695  306C               	movlw	108
  1452  0696  1903               	skipnz
  1453  0697  0250               	subwf	_Display_Volt,w
  1454  0698  1C03               	skipc
  1455  0699  2E9B               	goto	u2321
  1456  069A  2E9C               	goto	u2320
  1457  069B                     u2321:
  1458  069B  2EA1               	goto	l2493
  1459  069C                     u2320:
  1460  069C                     l2491:
  1461                           
  1462                           ;Li_ion_main.c: 209:         {;Li_ion_main.c: 210:             Display_Array[3] = 19;
  1463  069C  3013               	movlw	19
  1464  069D  00FF               	movwf	btemp+1
  1465  069E  087F               	movf	btemp+1,w
  1466  069F  00EA               	movwf	_Display_Array+3
  1467                           
  1468                           ;Li_ion_main.c: 211:         }
  1469  06A0  2EB3               	goto	l2499
  1470  06A1                     l2493:
  1471  06A1  3000               	movlw	0
  1472  06A2  0251               	subwf	_Display_Volt+1,w
  1473  06A3  3066               	movlw	102
  1474  06A4  1903               	skipnz
  1475  06A5  0250               	subwf	_Display_Volt,w
  1476  06A6  1C03               	skipc
  1477  06A7  2EA9               	goto	u2331
  1478  06A8  2EAA               	goto	u2330
  1479  06A9                     u2331:
  1480  06A9  2EAF               	goto	l2497
  1481  06AA                     u2330:
  1482  06AA                     l2495:
  1483                           
  1484                           ;Li_ion_main.c: 213:         {;Li_ion_main.c: 214:             Display_Array[3] = 18;
  1485  06AA  3012               	movlw	18
  1486  06AB  00FF               	movwf	btemp+1
  1487  06AC  087F               	movf	btemp+1,w
  1488  06AD  00EA               	movwf	_Display_Array+3
  1489                           
  1490                           ;Li_ion_main.c: 215:         }
  1491  06AE  2EB3               	goto	l2499
  1492  06AF                     l2497:
  1493                           
  1494                           ;Li_ion_main.c: 217:         {;Li_ion_main.c: 218:             Display_Array[3] = 23;
  1495  06AF  3017               	movlw	23
  1496  06B0  00FF               	movwf	btemp+1
  1497  06B1  087F               	movf	btemp+1,w
  1498  06B2  00EA               	movwf	_Display_Array+3
  1499  06B3                     l2499:
  1500                           
  1501                           ;Li_ion_main.c: 167:     while(State==Wait_Charge)
  1502  06B3  0857               	movf	_State,w
  1503  06B4  1903               	btfsc	3,2
  1504  06B5  2EB7               	goto	u2341
  1505  06B6  2EB8               	goto	u2340
  1506  06B7                     u2341:
  1507  06B7  2DDF               	goto	l91
  1508  06B8                     u2340:
  1509  06B8                     l109:
  1510  06B8  0008               	return
  1511  06B9                     __end_of_WaitCharge_Function:
  1512                           
  1513                           	psect	text2
  1514  003B                     __ptext2:	
  1515 ;; *************** function _VoltCharge_Function *****************
  1516 ;; Defined at:
  1517 ;;		line 352 in file "Li_ion_main.c"
  1518 ;; Parameters:    Size  Location     Type
  1519 ;;		None
  1520 ;; Auto vars:     Size  Location     Type
  1521 ;;  i               1   37[BANK0 ] unsigned char 
  1522 ;;  A_To_V          4   30[BANK0 ] unsigned long 
  1523 ;;  i               1   36[BANK0 ] unsigned char 
  1524 ;;  Current_Valu    2   40[BANK0 ] unsigned int 
  1525 ;;  Volt_Value      2   38[BANK0 ] unsigned int 
  1526 ;;  C_Count         1   35[BANK0 ] unsigned char 
  1527 ;;  Total_Count     1   34[BANK0 ] unsigned char 
  1528 ;; Return value:  Size  Location     Type
  1529 ;;                  1    wreg      void 
  1530 ;; Registers used:
  1531 ;;		wreg, fsr0l, fsr0h, status,2, status,0, btemp+1, pclath, cstack
  1532 ;; Tracked objects:
  1533 ;;		On entry : 0/0
  1534 ;;		On exit  : 0/0
  1535 ;;		Unchanged: 0/0
  1536 ;; Data sizes:     COMMON   BANK0   BANK1   BANK2
  1537 ;;      Params:         0       0       0       0
  1538 ;;      Locals:         0      12       0       0
  1539 ;;      Temps:          0       2       0       0
  1540 ;;      Totals:         0      14       0       0
  1541 ;;Total ram usage:       14 bytes
  1542 ;; Hardware stack levels used:    1
  1543 ;; Hardware stack levels required when called:    4
  1544 ;; This function calls:
  1545 ;;		_Data2Array
  1546 ;;		___aldiv
  1547 ;;		___lldiv
  1548 ;;		___lmul
  1549 ;; This function is called by:
  1550 ;;		_main
  1551 ;; This function uses a non-reentrant model
  1552 ;;
  1553                           
  1554                           
  1555                           ;psect for function _VoltCharge_Function
  1556  003B                     _VoltCharge_Function:
  1557  003B                     l2629:	
  1558                           ;incstack = 0
  1559                           ; Regs used in _VoltCharge_Function: [wreg-fsr0h+status,2+status,0+btemp+1+pclath+cstack
      +                          ]
  1560                           
  1561                           
  1562                           ;Li_ion_main.c: 354:     unsigned int Volt_Value=0;
  1563  003B  1283               	bcf	3,5	;RP0=0, select bank0
  1564  003C  1303               	bcf	3,6	;RP1=0, select bank0
  1565  003D  01C6               	clrf	VoltCharge_Function@Volt_Value
  1566  003E  01C7               	clrf	VoltCharge_Function@Volt_Value+1
  1567                           
  1568                           ;Li_ion_main.c: 355:     unsigned int Current_Value=0;
  1569  003F  01C8               	clrf	VoltCharge_Function@Current_Value
  1570  0040  01C9               	clrf	VoltCharge_Function@Current_Value+1
  1571                           
  1572                           ;Li_ion_main.c: 356:     char Total_Count=0;
  1573  0041  01C2               	clrf	VoltCharge_Function@Total_Count
  1574                           
  1575                           ;Li_ion_main.c: 357:     char C_Count=0;
  1576  0042  01C3               	clrf	VoltCharge_Function@C_Count
  1577  0043                     l2631:
  1578                           
  1579                           ;Li_ion_main.c: 359:     CCPR1L = PWM_Value>>2;
  1580  0043  0855               	movf	_PWM_Value+1,w
  1581  0044  00BD               	movwf	??_VoltCharge_Function+1
  1582  0045  0854               	movf	_PWM_Value,w
  1583  0046  00BC               	movwf	??_VoltCharge_Function
  1584  0047  1003               	clrc
  1585  0048  0CBD               	rrf	??_VoltCharge_Function+1,f
  1586  0049  0CBC               	rrf	??_VoltCharge_Function,f
  1587  004A  1003               	clrc
  1588  004B  0CBD               	rrf	??_VoltCharge_Function+1,f
  1589  004C  0CBC               	rrf	??_VoltCharge_Function,f
  1590  004D  083C               	movf	??_VoltCharge_Function,w
  1591  004E  0095               	movwf	21	;volatile
  1592  004F                     l2633:
  1593                           
  1594                           ;Li_ion_main.c: 360:     CCP1CON= (PWM_Value &0x3)<<4 |
  1595  004F  0854               	movf	_PWM_Value,w
  1596  0050  3903               	andlw	3
  1597  0051  00BC               	movwf	??_VoltCharge_Function
  1598  0052  3003               	movlw	3
  1599  0053                     u2585:
  1600  0053  1003               	clrc
  1601  0054  0DBC               	rlf	??_VoltCharge_Function,f
  1602  0055  3EFF               	addlw	-1
  1603  0056  1D03               	skipz
  1604  0057  2853               	goto	u2585
  1605  0058  1003               	clrc
  1606  0059  0D3C               	rlf	??_VoltCharge_Function,w
  1607  005A  380C               	iorlw	12
  1608  005B  0097               	movwf	23	;volatile
  1609                           
  1610                           ;Li_ion_main.c: 362:     while(State==Volt_Charge)
  1611  005C  2A89               	goto	l2767
  1612  005D                     l149:
  1613                           
  1614                           ;Li_ion_main.c: 363:     {;Li_ion_main.c: 364:         if(!(PORTC & (1<<0)))
  1615  005D  1807               	btfsc	7,0	;volatile
  1616  005E  2860               	goto	u2591
  1617  005F  2861               	goto	u2590
  1618  0060                     u2591:
  1619  0060  2864               	goto	l2637
  1620  0061                     u2590:
  1621  0061                     l2635:
  1622                           
  1623                           ;Li_ion_main.c: 365:         {;Li_ion_main.c: 366:             SolarFlag=1;
  1624  0061  01D8               	clrf	_SolarFlag
  1625  0062  0AD8               	incf	_SolarFlag,f
  1626                           
  1627                           ;Li_ion_main.c: 367:         }
  1628  0063  2866               	goto	l2639
  1629  0064                     l2637:
  1630                           
  1631                           ;Li_ion_main.c: 369:         {;Li_ion_main.c: 370:             SolarFlag=0;
  1632  0064  01D8               	clrf	_SolarFlag
  1633                           
  1634                           ;Li_ion_main.c: 371:             State=Wait_Charge;
  1635  0065  01D7               	clrf	_State
  1636  0066                     l2639:
  1637                           
  1638                           ;Li_ion_main.c: 373:         ADCON0 &= ~(0x0F<<2);
  1639  0066  30C3               	movlw	195
  1640  0067  00FF               	movwf	btemp+1
  1641  0068  087F               	movf	btemp+1,w
  1642  0069  059F               	andwf	31,f	;volatile
  1643  006A                     l2641:
  1644                           
  1645                           ;Li_ion_main.c: 374:         ADCON0 |= (0<<2);
  1646  006A  081F               	movf	31,w	;volatile
  1647  006B                     l2643:
  1648                           
  1649                           ;Li_ion_main.c: 375:         AD_Value=0;
  1650  006B  01D2               	clrf	_AD_Value
  1651  006C  01D3               	clrf	_AD_Value+1
  1652  006D                     l2645:
  1653                           
  1654                           ;Li_ion_main.c: 376:         for(char i=0;i<16;i++)
  1655  006D  01C4               	clrf	VoltCharge_Function@i
  1656  006E                     l152:
  1657                           
  1658                           ;Li_ion_main.c: 377:         {;Li_ion_main.c: 378:             ADCON0 |= (1<<1);
  1659  006E  149F               	bsf	31,1	;volatile
  1660  006F                     l154:	
  1661                           ;Li_ion_main.c: 380:                 ;
  1662                           
  1663                           
  1664                           ;Li_ion_main.c: 379:             while(ADCON0 & (1<<1))
  1665  006F  189F               	btfsc	31,1	;volatile
  1666  0070  2872               	goto	u2601
  1667  0071  2873               	goto	u2600
  1668  0072                     u2601:
  1669  0072  286F               	goto	l154
  1670  0073                     u2600:
  1671  0073                     l2651:
  1672                           
  1673                           ;Li_ion_main.c: 381:             AD_Value+=(int)ADRESH<<8 | ADRESL;
  1674  0073  1683               	bsf	3,5	;RP0=1, select bank1
  1675  0074  1303               	bcf	3,6	;RP1=0, select bank1
  1676  0075  081E               	movf	30,w	;volatile
  1677  0076  1283               	bcf	3,5	;RP0=0, select bank0
  1678  0077  1303               	bcf	3,6	;RP1=0, select bank0
  1679  0078  07D2               	addwf	_AD_Value,f
  1680  0079  1803               	skipnc
  1681  007A  0AD3               	incf	_AD_Value+1,f
  1682  007B  081E               	movf	30,w	;volatile
  1683  007C  07D3               	addwf	_AD_Value+1,f
  1684                           
  1685                           ;Li_ion_main.c: 382:             _delay((unsigned long)((1)*(4000000/4000.0)));
  1686  007D  30C7               	movlw	199
  1687  007E  1283               	bcf	3,5	;RP0=0, select bank0
  1688  007F  1303               	bcf	3,6	;RP1=0, select bank0
  1689  0080  00BC               	movwf	??_VoltCharge_Function
  1690  0081                     u2997:
  1691  0081  2882               	nop2
  1692  0082  0BBC               	decfsz	??_VoltCharge_Function,f
  1693  0083  2881               	goto	u2997
  1694  0084  2885               	nop2
  1695  0085  0000               	nop
  1696  0086                     l2653:
  1697                           
  1698                           ;Li_ion_main.c: 383:         }
  1699  0086  3001               	movlw	1
  1700  0087  00FF               	movwf	btemp+1
  1701  0088  087F               	movf	btemp+1,w
  1702  0089  1283               	bcf	3,5	;RP0=0, select bank0
  1703  008A  1303               	bcf	3,6	;RP1=0, select bank0
  1704  008B  07C4               	addwf	VoltCharge_Function@i,f
  1705  008C                     l2655:
  1706  008C  3010               	movlw	16
  1707  008D  0244               	subwf	VoltCharge_Function@i,w
  1708  008E  1C03               	skipc
  1709  008F  2891               	goto	u2611
  1710  0090  2892               	goto	u2610
  1711  0091                     u2611:
  1712  0091  286E               	goto	l152
  1713  0092                     u2610:
  1714  0092                     l2657:
  1715                           
  1716                           ;Li_ion_main.c: 384:         Current_Value+=(AD_Value>>4);
  1717  0092  0853               	movf	_AD_Value+1,w
  1718  0093  00BD               	movwf	??_VoltCharge_Function+1
  1719  0094  0852               	movf	_AD_Value,w
  1720  0095  00BC               	movwf	??_VoltCharge_Function
  1721  0096  3004               	movlw	4
  1722  0097                     u2625:
  1723  0097  1003               	clrc
  1724  0098  0CBD               	rrf	??_VoltCharge_Function+1,f
  1725  0099  0CBC               	rrf	??_VoltCharge_Function,f
  1726  009A  3EFF               	addlw	-1
  1727  009B  1D03               	skipz
  1728  009C  2897               	goto	u2625
  1729  009D  083C               	movf	??_VoltCharge_Function,w
  1730  009E  07C8               	addwf	VoltCharge_Function@Current_Value,f
  1731  009F  1803               	skipnc
  1732  00A0  0AC9               	incf	VoltCharge_Function@Current_Value+1,f
  1733  00A1  083D               	movf	??_VoltCharge_Function+1,w
  1734  00A2  07C9               	addwf	VoltCharge_Function@Current_Value+1,f
  1735  00A3                     l2659:
  1736                           
  1737                           ;Li_ion_main.c: 385:         C_Count++;
  1738  00A3  3001               	movlw	1
  1739  00A4  00FF               	movwf	btemp+1
  1740  00A5  087F               	movf	btemp+1,w
  1741  00A6  07C3               	addwf	VoltCharge_Function@C_Count,f
  1742  00A7                     l2661:
  1743                           
  1744                           ;Li_ion_main.c: 386:         if(C_Count>=4)
  1745  00A7  3004               	movlw	4
  1746  00A8  0243               	subwf	VoltCharge_Function@C_Count,w
  1747  00A9  1C03               	skipc
  1748  00AA  28AC               	goto	u2631
  1749  00AB  28AD               	goto	u2630
  1750  00AC                     u2631:
  1751  00AC  2929               	goto	l2677
  1752  00AD                     u2630:
  1753  00AD                     l2663:
  1754                           
  1755                           ;Li_ion_main.c: 387:         {;Li_ion_main.c: 388:             C_Count=0;
  1756  00AD  01C3               	clrf	VoltCharge_Function@C_Count
  1757  00AE                     l2665:
  1758                           
  1759                           ;Li_ion_main.c: 389:             Current_Value=Current_Value>>2;
  1760  00AE  0849               	movf	VoltCharge_Function@Current_Value+1,w
  1761  00AF  00BD               	movwf	??_VoltCharge_Function+1
  1762  00B0  0848               	movf	VoltCharge_Function@Current_Value,w
  1763  00B1  00BC               	movwf	??_VoltCharge_Function
  1764  00B2  1003               	clrc
  1765  00B3  0CBD               	rrf	??_VoltCharge_Function+1,f
  1766  00B4  0CBC               	rrf	??_VoltCharge_Function,f
  1767  00B5  1003               	clrc
  1768  00B6  0CBD               	rrf	??_VoltCharge_Function+1,f
  1769  00B7  0CBC               	rrf	??_VoltCharge_Function,f
  1770  00B8  083C               	movf	??_VoltCharge_Function,w
  1771  00B9  00C8               	movwf	VoltCharge_Function@Current_Value
  1772  00BA  083D               	movf	??_VoltCharge_Function+1,w
  1773  00BB  00C9               	movwf	VoltCharge_Function@Current_Value+1
  1774  00BC                     l2667:
  1775                           
  1776                           ;Li_ion_main.c: 401:             unsigned long A_To_V = ((unsigned long)Current_Value * 
      +                          500) / 1023;
  1777  00BC  3000               	movlw	0
  1778  00BD  00B0               	movwf	___lldiv@divisor+3
  1779  00BE  3000               	movlw	0
  1780  00BF  00AF               	movwf	___lldiv@divisor+2
  1781  00C0  3003               	movlw	3
  1782  00C1  00AE               	movwf	___lldiv@divisor+1
  1783  00C2  30FF               	movlw	255
  1784  00C3  00AD               	movwf	___lldiv@divisor
  1785  00C4  0848               	movf	VoltCharge_Function@Current_Value,w
  1786  00C5  00A0               	movwf	___lmul@multiplier
  1787  00C6  0849               	movf	VoltCharge_Function@Current_Value+1,w
  1788  00C7  00A1               	movwf	___lmul@multiplier+1
  1789  00C8  01A2               	clrf	___lmul@multiplier+2
  1790  00C9  01A3               	clrf	___lmul@multiplier+3
  1791  00CA  3000               	movlw	0
  1792  00CB  00A7               	movwf	___lmul@multiplicand+3
  1793  00CC  3000               	movlw	0
  1794  00CD  00A6               	movwf	___lmul@multiplicand+2
  1795  00CE  3001               	movlw	1
  1796  00CF  00A5               	movwf	___lmul@multiplicand+1
  1797  00D0  30F4               	movlw	244
  1798  00D1  00A4               	movwf	___lmul@multiplicand
  1799  00D2  118A  27A2  118A   	fcall	___lmul
  1800  00D5  1283               	bcf	3,5	;RP0=0, select bank0
  1801  00D6  1303               	bcf	3,6	;RP1=0, select bank0
  1802  00D7  0823               	movf	?___lmul+3,w
  1803  00D8  00B4               	movwf	___lldiv@dividend+3
  1804  00D9  0822               	movf	?___lmul+2,w
  1805  00DA  00B3               	movwf	___lldiv@dividend+2
  1806  00DB  0821               	movf	?___lmul+1,w
  1807  00DC  00B2               	movwf	___lldiv@dividend+1
  1808  00DD  0820               	movf	?___lmul,w
  1809  00DE  00B1               	movwf	___lldiv@dividend
  1810  00DF  158A  266B  118A   	fcall	___lldiv
  1811  00E2  1283               	bcf	3,5	;RP0=0, select bank0
  1812  00E3  1303               	bcf	3,6	;RP1=0, select bank0
  1813  00E4  0830               	movf	?___lldiv+3,w
  1814  00E5  00C1               	movwf	VoltCharge_Function@A_To_V+3
  1815  00E6  082F               	movf	?___lldiv+2,w
  1816  00E7  00C0               	movwf	VoltCharge_Function@A_To_V+2
  1817  00E8  082E               	movf	?___lldiv+1,w
  1818  00E9  00BF               	movwf	VoltCharge_Function@A_To_V+1
  1819  00EA  082D               	movf	?___lldiv,w
  1820  00EB  00BE               	movwf	VoltCharge_Function@A_To_V
  1821  00EC                     l2669:
  1822                           
  1823                           ;Li_ion_main.c: 402:             Display_Current = (A_To_V * 10) / 24;
  1824  00EC  3000               	movlw	0
  1825  00ED  00B0               	movwf	___lldiv@divisor+3
  1826  00EE  3000               	movlw	0
  1827  00EF  00AF               	movwf	___lldiv@divisor+2
  1828  00F0  3000               	movlw	0
  1829  00F1  00AE               	movwf	___lldiv@divisor+1
  1830  00F2  3018               	movlw	24
  1831  00F3  00AD               	movwf	___lldiv@divisor
  1832  00F4  0841               	movf	VoltCharge_Function@A_To_V+3,w
  1833  00F5  00A3               	movwf	___lmul@multiplier+3
  1834  00F6  0840               	movf	VoltCharge_Function@A_To_V+2,w
  1835  00F7  00A2               	movwf	___lmul@multiplier+2
  1836  00F8  083F               	movf	VoltCharge_Function@A_To_V+1,w
  1837  00F9  00A1               	movwf	___lmul@multiplier+1
  1838  00FA  083E               	movf	VoltCharge_Function@A_To_V,w
  1839  00FB  00A0               	movwf	___lmul@multiplier
  1840  00FC  3000               	movlw	0
  1841  00FD  00A7               	movwf	___lmul@multiplicand+3
  1842  00FE  3000               	movlw	0
  1843  00FF  00A6               	movwf	___lmul@multiplicand+2
  1844  0100  3000               	movlw	0
  1845  0101  00A5               	movwf	___lmul@multiplicand+1
  1846  0102  300A               	movlw	10
  1847  0103  00A4               	movwf	___lmul@multiplicand
  1848  0104  118A  27A2  118A   	fcall	___lmul
  1849  0107  1283               	bcf	3,5	;RP0=0, select bank0
  1850  0108  1303               	bcf	3,6	;RP1=0, select bank0
  1851  0109  0823               	movf	?___lmul+3,w
  1852  010A  00B4               	movwf	___lldiv@dividend+3
  1853  010B  0822               	movf	?___lmul+2,w
  1854  010C  00B3               	movwf	___lldiv@dividend+2
  1855  010D  0821               	movf	?___lmul+1,w
  1856  010E  00B2               	movwf	___lldiv@dividend+1
  1857  010F  0820               	movf	?___lmul,w
  1858  0110  00B1               	movwf	___lldiv@dividend
  1859  0111  158A  266B  118A   	fcall	___lldiv
  1860  0114  1283               	bcf	3,5	;RP0=0, select bank0
  1861  0115  1303               	bcf	3,6	;RP1=0, select bank0
  1862  0116  082E               	movf	?___lldiv+1,w
  1863  0117  00CF               	movwf	_Display_Current+1
  1864  0118  082D               	movf	?___lldiv,w
  1865  0119  00CE               	movwf	_Display_Current
  1866  011A                     l2671:
  1867                           
  1868                           ;Li_ion_main.c: 403:             Current_Value = 0;
  1869  011A  01C8               	clrf	VoltCharge_Function@Current_Value
  1870  011B  01C9               	clrf	VoltCharge_Function@Current_Value+1
  1871  011C                     l2673:
  1872                           
  1873                           ;Li_ion_main.c: 404:             if(Display_Current<=2)
  1874  011C  3000               	movlw	0
  1875  011D  024F               	subwf	_Display_Current+1,w
  1876  011E  3003               	movlw	3
  1877  011F  1903               	skipnz
  1878  0120  024E               	subwf	_Display_Current,w
  1879  0121  1803               	skipnc
  1880  0122  2924               	goto	u2641
  1881  0123  2925               	goto	u2640
  1882  0124                     u2641:
  1883  0124  2929               	goto	l2677
  1884  0125                     u2640:
  1885  0125                     l2675:
  1886                           
  1887                           ;Li_ion_main.c: 405:             {;Li_ion_main.c: 406:                 State=Full_Charge
      +                          ;
  1888  0125  3003               	movlw	3
  1889  0126  00FF               	movwf	btemp+1
  1890  0127  087F               	movf	btemp+1,w
  1891  0128  00D7               	movwf	_State
  1892  0129                     l2677:
  1893                           
  1894                           ;Li_ion_main.c: 410:         ADCON0 &= ~(0x0F<<2);
  1895  0129  30C3               	movlw	195
  1896  012A  00FF               	movwf	btemp+1
  1897  012B  087F               	movf	btemp+1,w
  1898  012C  059F               	andwf	31,f	;volatile
  1899  012D                     l2679:
  1900                           
  1901                           ;Li_ion_main.c: 411:         ADCON0 |= (1<<2);
  1902  012D  151F               	bsf	31,2	;volatile
  1903  012E                     l2681:
  1904                           
  1905                           ;Li_ion_main.c: 412:         AD_Value=0;
  1906  012E  01D2               	clrf	_AD_Value
  1907  012F  01D3               	clrf	_AD_Value+1
  1908  0130                     l2683:
  1909                           
  1910                           ;Li_ion_main.c: 413:         for(char i=0;i<16;i++)
  1911  0130  01C5               	clrf	VoltCharge_Function@i_141
  1912  0131                     l159:
  1913                           
  1914                           ;Li_ion_main.c: 414:         {;Li_ion_main.c: 415:             ADCON0 |= (1<<1);
  1915  0131  149F               	bsf	31,1	;volatile
  1916  0132                     l161:	
  1917                           ;Li_ion_main.c: 417:                 ;
  1918                           
  1919                           
  1920                           ;Li_ion_main.c: 416:             while(ADCON0 & (1<<1))
  1921  0132  189F               	btfsc	31,1	;volatile
  1922  0133  2935               	goto	u2651
  1923  0134  2936               	goto	u2650
  1924  0135                     u2651:
  1925  0135  2932               	goto	l161
  1926  0136                     u2650:
  1927  0136                     l2689:
  1928                           
  1929                           ;Li_ion_main.c: 418:             AD_Value+=(int)ADRESH<<8 | ADRESL;
  1930  0136  1683               	bsf	3,5	;RP0=1, select bank1
  1931  0137  1303               	bcf	3,6	;RP1=0, select bank1
  1932  0138  081E               	movf	30,w	;volatile
  1933  0139  1283               	bcf	3,5	;RP0=0, select bank0
  1934  013A  1303               	bcf	3,6	;RP1=0, select bank0
  1935  013B  07D2               	addwf	_AD_Value,f
  1936  013C  1803               	skipnc
  1937  013D  0AD3               	incf	_AD_Value+1,f
  1938  013E  081E               	movf	30,w	;volatile
  1939  013F  07D3               	addwf	_AD_Value+1,f
  1940                           
  1941                           ;Li_ion_main.c: 419:             _delay((unsigned long)((1)*(4000000/4000.0)));
  1942  0140  30C7               	movlw	199
  1943  0141  1283               	bcf	3,5	;RP0=0, select bank0
  1944  0142  1303               	bcf	3,6	;RP1=0, select bank0
  1945  0143  00BC               	movwf	??_VoltCharge_Function
  1946  0144                     u3007:
  1947  0144  2945               	nop2
  1948  0145  0BBC               	decfsz	??_VoltCharge_Function,f
  1949  0146  2944               	goto	u3007
  1950  0147  2948               	nop2
  1951  0148  0000               	nop
  1952  0149                     l2691:
  1953                           
  1954                           ;Li_ion_main.c: 420:         }
  1955  0149  3001               	movlw	1
  1956  014A  00FF               	movwf	btemp+1
  1957  014B  087F               	movf	btemp+1,w
  1958  014C  1283               	bcf	3,5	;RP0=0, select bank0
  1959  014D  1303               	bcf	3,6	;RP1=0, select bank0
  1960  014E  07C5               	addwf	VoltCharge_Function@i_141,f
  1961  014F                     l2693:
  1962  014F  3010               	movlw	16
  1963  0150  0245               	subwf	VoltCharge_Function@i_141,w
  1964  0151  1C03               	skipc
  1965  0152  2954               	goto	u2661
  1966  0153  2955               	goto	u2660
  1967  0154                     u2661:
  1968  0154  2931               	goto	l159
  1969  0155                     u2660:
  1970  0155                     l2695:
  1971                           
  1972                           ;Li_ion_main.c: 421:         Volt_Value+=(AD_Value>>4);
  1973  0155  0853               	movf	_AD_Value+1,w
  1974  0156  00BD               	movwf	??_VoltCharge_Function+1
  1975  0157  0852               	movf	_AD_Value,w
  1976  0158  00BC               	movwf	??_VoltCharge_Function
  1977  0159  3004               	movlw	4
  1978  015A                     u2675:
  1979  015A  1003               	clrc
  1980  015B  0CBD               	rrf	??_VoltCharge_Function+1,f
  1981  015C  0CBC               	rrf	??_VoltCharge_Function,f
  1982  015D  3EFF               	addlw	-1
  1983  015E  1D03               	skipz
  1984  015F  295A               	goto	u2675
  1985  0160  083C               	movf	??_VoltCharge_Function,w
  1986  0161  07C6               	addwf	VoltCharge_Function@Volt_Value,f
  1987  0162  1803               	skipnc
  1988  0163  0AC7               	incf	VoltCharge_Function@Volt_Value+1,f
  1989  0164  083D               	movf	??_VoltCharge_Function+1,w
  1990  0165  07C7               	addwf	VoltCharge_Function@Volt_Value+1,f
  1991  0166                     l2697:
  1992                           
  1993                           ;Li_ion_main.c: 422:         Total_Count++;
  1994  0166  3001               	movlw	1
  1995  0167  00FF               	movwf	btemp+1
  1996  0168  087F               	movf	btemp+1,w
  1997  0169  07C2               	addwf	VoltCharge_Function@Total_Count,f
  1998  016A                     l2699:
  1999                           
  2000                           ;Li_ion_main.c: 423:         if(Total_Count>=4)
  2001  016A  3004               	movlw	4
  2002  016B  0242               	subwf	VoltCharge_Function@Total_Count,w
  2003  016C  1C03               	skipc
  2004  016D  296F               	goto	u2681
  2005  016E  2970               	goto	u2680
  2006  016F                     u2681:
  2007  016F  2A32               	goto	l2741
  2008  0170                     u2680:
  2009  0170                     l2701:
  2010                           
  2011                           ;Li_ion_main.c: 424:         {;Li_ion_main.c: 425:             Total_Count=0;
  2012  0170  01C2               	clrf	VoltCharge_Function@Total_Count
  2013  0171                     l2703:
  2014                           
  2015                           ;Li_ion_main.c: 426:             Volt_Value=Volt_Value>>2;
  2016  0171  0847               	movf	VoltCharge_Function@Volt_Value+1,w
  2017  0172  00BD               	movwf	??_VoltCharge_Function+1
  2018  0173  0846               	movf	VoltCharge_Function@Volt_Value,w
  2019  0174  00BC               	movwf	??_VoltCharge_Function
  2020  0175  1003               	clrc
  2021  0176  0CBD               	rrf	??_VoltCharge_Function+1,f
  2022  0177  0CBC               	rrf	??_VoltCharge_Function,f
  2023  0178  1003               	clrc
  2024  0179  0CBD               	rrf	??_VoltCharge_Function+1,f
  2025  017A  0CBC               	rrf	??_VoltCharge_Function,f
  2026  017B  083C               	movf	??_VoltCharge_Function,w
  2027  017C  00C6               	movwf	VoltCharge_Function@Volt_Value
  2028  017D  083D               	movf	??_VoltCharge_Function+1,w
  2029  017E  00C7               	movwf	VoltCharge_Function@Volt_Value+1
  2030  017F                     l2705:
  2031                           
  2032                           ;Li_ion_main.c: 427:             Display_Volt=((long)140*Volt_Value)/512;
  2033  017F  3000               	movlw	0
  2034  0180  00B0               	movwf	___aldiv@divisor+3
  2035  0181  3000               	movlw	0
  2036  0182  00AF               	movwf	___aldiv@divisor+2
  2037  0183  3002               	movlw	2
  2038  0184  00AE               	movwf	___aldiv@divisor+1
  2039  0185  3000               	movlw	0
  2040  0186  00AD               	movwf	___aldiv@divisor
  2041  0187  0846               	movf	VoltCharge_Function@Volt_Value,w
  2042  0188  00A0               	movwf	___lmul@multiplier
  2043  0189  0847               	movf	VoltCharge_Function@Volt_Value+1,w
  2044  018A  00A1               	movwf	___lmul@multiplier+1
  2045  018B  01A2               	clrf	___lmul@multiplier+2
  2046  018C  01A3               	clrf	___lmul@multiplier+3
  2047  018D  3000               	movlw	0
  2048  018E  00A7               	movwf	___lmul@multiplicand+3
  2049  018F  3000               	movlw	0
  2050  0190  00A6               	movwf	___lmul@multiplicand+2
  2051  0191  3000               	movlw	0
  2052  0192  00A5               	movwf	___lmul@multiplicand+1
  2053  0193  308C               	movlw	140
  2054  0194  00A4               	movwf	___lmul@multiplicand
  2055  0195  118A  27A2  118A   	fcall	___lmul
  2056  0198  1283               	bcf	3,5	;RP0=0, select bank0
  2057  0199  1303               	bcf	3,6	;RP1=0, select bank0
  2058  019A  0823               	movf	?___lmul+3,w
  2059  019B  00B4               	movwf	___aldiv@dividend+3
  2060  019C  0822               	movf	?___lmul+2,w
  2061  019D  00B3               	movwf	___aldiv@dividend+2
  2062  019E  0821               	movf	?___lmul+1,w
  2063  019F  00B2               	movwf	___aldiv@dividend+1
  2064  01A0  0820               	movf	?___lmul,w
  2065  01A1  00B1               	movwf	___aldiv@dividend
  2066  01A2  158A  2763  118A   	fcall	___aldiv
  2067  01A5  1283               	bcf	3,5	;RP0=0, select bank0
  2068  01A6  1303               	bcf	3,6	;RP1=0, select bank0
  2069  01A7  082E               	movf	?___aldiv+1,w
  2070  01A8  00D1               	movwf	_Display_Volt+1
  2071  01A9  082D               	movf	?___aldiv,w
  2072  01AA  00D0               	movwf	_Display_Volt
  2073  01AB                     l2707:
  2074                           
  2075                           ;Li_ion_main.c: 428:             if(Display_Volt<126 && PWM_Value<900 && Display_Current
      +                           < 20)
  2076  01AB  3000               	movlw	0
  2077  01AC  0251               	subwf	_Display_Volt+1,w
  2078  01AD  307E               	movlw	126
  2079  01AE  1903               	skipnz
  2080  01AF  0250               	subwf	_Display_Volt,w
  2081  01B0  1803               	skipnc
  2082  01B1  29B3               	goto	u2691
  2083  01B2  29B4               	goto	u2690
  2084  01B3                     u2691:
  2085  01B3  29E6               	goto	l2719
  2086  01B4                     u2690:
  2087  01B4                     l2709:
  2088  01B4  3003               	movlw	3
  2089  01B5  0255               	subwf	_PWM_Value+1,w
  2090  01B6  3084               	movlw	132
  2091  01B7  1903               	skipnz
  2092  01B8  0254               	subwf	_PWM_Value,w
  2093  01B9  1803               	skipnc
  2094  01BA  29BC               	goto	u2701
  2095  01BB  29BD               	goto	u2700
  2096  01BC                     u2701:
  2097  01BC  29E6               	goto	l2719
  2098  01BD                     u2700:
  2099  01BD                     l2711:
  2100  01BD  3000               	movlw	0
  2101  01BE  024F               	subwf	_Display_Current+1,w
  2102  01BF  3014               	movlw	20
  2103  01C0  1903               	skipnz
  2104  01C1  024E               	subwf	_Display_Current,w
  2105  01C2  1803               	skipnc
  2106  01C3  29C5               	goto	u2711
  2107  01C4  29C6               	goto	u2710
  2108  01C5                     u2711:
  2109  01C5  29E6               	goto	l2719
  2110  01C6                     u2710:
  2111  01C6                     l2713:
  2112                           
  2113                           ;Li_ion_main.c: 429:             {;Li_ion_main.c: 430:                 PWM_Value++;
  2114  01C6  3001               	movlw	1
  2115  01C7  07D4               	addwf	_PWM_Value,f
  2116  01C8  1803               	skipnc
  2117  01C9  0AD5               	incf	_PWM_Value+1,f
  2118  01CA  3000               	movlw	0
  2119  01CB  07D5               	addwf	_PWM_Value+1,f
  2120  01CC                     l2715:
  2121                           
  2122                           ;Li_ion_main.c: 431:                 CCPR1L = PWM_Value>>2;
  2123  01CC  0855               	movf	_PWM_Value+1,w
  2124  01CD  00BD               	movwf	??_VoltCharge_Function+1
  2125  01CE  0854               	movf	_PWM_Value,w
  2126  01CF  00BC               	movwf	??_VoltCharge_Function
  2127  01D0  1003               	clrc
  2128  01D1  0CBD               	rrf	??_VoltCharge_Function+1,f
  2129  01D2  0CBC               	rrf	??_VoltCharge_Function,f
  2130  01D3  1003               	clrc
  2131  01D4  0CBD               	rrf	??_VoltCharge_Function+1,f
  2132  01D5  0CBC               	rrf	??_VoltCharge_Function,f
  2133  01D6  083C               	movf	??_VoltCharge_Function,w
  2134  01D7  0095               	movwf	21	;volatile
  2135  01D8                     l2717:
  2136                           
  2137                           ;Li_ion_main.c: 432:                 CCP1CON= (PWM_Value &0x3)<<4 |
  2138  01D8  0854               	movf	_PWM_Value,w
  2139  01D9  3903               	andlw	3
  2140  01DA  00BC               	movwf	??_VoltCharge_Function
  2141  01DB  3003               	movlw	3
  2142  01DC                     u2725:
  2143  01DC  1003               	clrc
  2144  01DD  0DBC               	rlf	??_VoltCharge_Function,f
  2145  01DE  3EFF               	addlw	-1
  2146  01DF  1D03               	skipz
  2147  01E0  29DC               	goto	u2725
  2148  01E1  1003               	clrc
  2149  01E2  0D3C               	rlf	??_VoltCharge_Function,w
  2150  01E3  380C               	iorlw	12
  2151  01E4  0097               	movwf	23	;volatile
  2152                           
  2153                           ;Li_ion_main.c: 434:             }
  2154  01E5  29FF               	goto	l2729
  2155  01E6                     l2719:
  2156  01E6  3000               	movlw	0
  2157  01E7  0251               	subwf	_Display_Volt+1,w
  2158  01E8  307F               	movlw	127
  2159  01E9  1903               	skipnz
  2160  01EA  0250               	subwf	_Display_Volt,w
  2161  01EB  1C03               	skipc
  2162  01EC  29EE               	goto	u2731
  2163  01ED  29EF               	goto	u2730
  2164  01EE                     u2731:
  2165  01EE  29FF               	goto	l2729
  2166  01EF                     u2730:
  2167  01EF                     l2721:
  2168  01EF  3000               	movlw	0
  2169  01F0  0255               	subwf	_PWM_Value+1,w
  2170  01F1  3006               	movlw	6
  2171  01F2  1903               	skipnz
  2172  01F3  0254               	subwf	_PWM_Value,w
  2173  01F4  1C03               	skipc
  2174  01F5  29F7               	goto	u2741
  2175  01F6  29F8               	goto	u2740
  2176  01F7                     u2741:
  2177  01F7  29FF               	goto	l2729
  2178  01F8                     u2740:
  2179  01F8                     l2723:
  2180                           
  2181                           ;Li_ion_main.c: 436:             {;Li_ion_main.c: 437:                 PWM_Value--;
  2182  01F8  3001               	movlw	1
  2183  01F9  02D4               	subwf	_PWM_Value,f
  2184  01FA  3000               	movlw	0
  2185  01FB  1C03               	skipc
  2186  01FC  03D5               	decf	_PWM_Value+1,f
  2187  01FD  02D5               	subwf	_PWM_Value+1,f
  2188  01FE  29CC               	goto	l2715
  2189  01FF                     l2729:
  2190                           
  2191                           ;Li_ion_main.c: 446:             if(Display_Current>20 && PWM_Value>5)
  2192  01FF  3000               	movlw	0
  2193  0200  024F               	subwf	_Display_Current+1,w
  2194  0201  3015               	movlw	21
  2195  0202  1903               	skipnz
  2196  0203  024E               	subwf	_Display_Current,w
  2197  0204  1C03               	skipc
  2198  0205  2A07               	goto	u2751
  2199  0206  2A08               	goto	u2750
  2200  0207                     u2751:
  2201  0207  2A30               	goto	l2739
  2202  0208                     u2750:
  2203  0208                     l2731:
  2204  0208  3000               	movlw	0
  2205  0209  0255               	subwf	_PWM_Value+1,w
  2206  020A  3006               	movlw	6
  2207  020B  1903               	skipnz
  2208  020C  0254               	subwf	_PWM_Value,w
  2209  020D  1C03               	skipc
  2210  020E  2A10               	goto	u2761
  2211  020F  2A11               	goto	u2760
  2212  0210                     u2761:
  2213  0210  2A30               	goto	l2739
  2214  0211                     u2760:
  2215  0211                     l2733:
  2216                           
  2217                           ;Li_ion_main.c: 447:             {;Li_ion_main.c: 448:                 PWM_Value--;
  2218  0211  3001               	movlw	1
  2219  0212  02D4               	subwf	_PWM_Value,f
  2220  0213  3000               	movlw	0
  2221  0214  1C03               	skipc
  2222  0215  03D5               	decf	_PWM_Value+1,f
  2223  0216  02D5               	subwf	_PWM_Value+1,f
  2224  0217                     l2735:
  2225                           
  2226                           ;Li_ion_main.c: 449:                 CCPR1L = PWM_Value>>2;
  2227  0217  0855               	movf	_PWM_Value+1,w
  2228  0218  00BD               	movwf	??_VoltCharge_Function+1
  2229  0219  0854               	movf	_PWM_Value,w
  2230  021A  00BC               	movwf	??_VoltCharge_Function
  2231  021B  1003               	clrc
  2232  021C  0CBD               	rrf	??_VoltCharge_Function+1,f
  2233  021D  0CBC               	rrf	??_VoltCharge_Function,f
  2234  021E  1003               	clrc
  2235  021F  0CBD               	rrf	??_VoltCharge_Function+1,f
  2236  0220  0CBC               	rrf	??_VoltCharge_Function,f
  2237  0221  083C               	movf	??_VoltCharge_Function,w
  2238  0222  0095               	movwf	21	;volatile
  2239  0223                     l2737:
  2240                           
  2241                           ;Li_ion_main.c: 450:                 CCP1CON= (PWM_Value &0x3)<<4 |
  2242  0223  0854               	movf	_PWM_Value,w
  2243  0224  3903               	andlw	3
  2244  0225  00BC               	movwf	??_VoltCharge_Function
  2245  0226  3003               	movlw	3
  2246  0227                     u2775:
  2247  0227  1003               	clrc
  2248  0228  0DBC               	rlf	??_VoltCharge_Function,f
  2249  0229  3EFF               	addlw	-1
  2250  022A  1D03               	skipz
  2251  022B  2A27               	goto	u2775
  2252  022C  1003               	clrc
  2253  022D  0D3C               	rlf	??_VoltCharge_Function,w
  2254  022E  380C               	iorlw	12
  2255  022F  0097               	movwf	23	;volatile
  2256  0230                     l2739:
  2257                           
  2258                           ;Li_ion_main.c: 454:             Volt_Value=0;
  2259  0230  01C6               	clrf	VoltCharge_Function@Volt_Value
  2260  0231  01C7               	clrf	VoltCharge_Function@Volt_Value+1
  2261  0232                     l2741:
  2262                           
  2263                           ;Li_ion_main.c: 456:         if(Display_Volt >=120)
  2264  0232  3000               	movlw	0
  2265  0233  0251               	subwf	_Display_Volt+1,w
  2266  0234  3078               	movlw	120
  2267  0235  1903               	skipnz
  2268  0236  0250               	subwf	_Display_Volt,w
  2269  0237  1C03               	skipc
  2270  0238  2A3A               	goto	u2781
  2271  0239  2A3B               	goto	u2780
  2272  023A                     u2781:
  2273  023A  2A40               	goto	l2745
  2274  023B                     u2780:
  2275  023B                     l2743:
  2276                           
  2277                           ;Li_ion_main.c: 457:         {;Li_ion_main.c: 458:             Display_Array[3] = 21;
  2278  023B  3015               	movlw	21
  2279  023C  00FF               	movwf	btemp+1
  2280  023D  087F               	movf	btemp+1,w
  2281  023E  00EA               	movwf	_Display_Array+3
  2282                           
  2283                           ;Li_ion_main.c: 459:         }
  2284  023F  2A6E               	goto	l2759
  2285  0240                     l2745:
  2286  0240  3000               	movlw	0
  2287  0241  0251               	subwf	_Display_Volt+1,w
  2288  0242  3072               	movlw	114
  2289  0243  1903               	skipnz
  2290  0244  0250               	subwf	_Display_Volt,w
  2291  0245  1C03               	skipc
  2292  0246  2A48               	goto	u2791
  2293  0247  2A49               	goto	u2790
  2294  0248                     u2791:
  2295  0248  2A4E               	goto	l2749
  2296  0249                     u2790:
  2297  0249                     l2747:
  2298                           
  2299                           ;Li_ion_main.c: 461:         {;Li_ion_main.c: 462:             Display_Array[3] = 20;
  2300  0249  3014               	movlw	20
  2301  024A  00FF               	movwf	btemp+1
  2302  024B  087F               	movf	btemp+1,w
  2303  024C  00EA               	movwf	_Display_Array+3
  2304                           
  2305                           ;Li_ion_main.c: 463:         }
  2306  024D  2A6E               	goto	l2759
  2307  024E                     l2749:
  2308  024E  3000               	movlw	0
  2309  024F  0251               	subwf	_Display_Volt+1,w
  2310  0250  306C               	movlw	108
  2311  0251  1903               	skipnz
  2312  0252  0250               	subwf	_Display_Volt,w
  2313  0253  1C03               	skipc
  2314  0254  2A56               	goto	u2801
  2315  0255  2A57               	goto	u2800
  2316  0256                     u2801:
  2317  0256  2A5C               	goto	l2753
  2318  0257                     u2800:
  2319  0257                     l2751:
  2320                           
  2321                           ;Li_ion_main.c: 465:         {;Li_ion_main.c: 466:             Display_Array[3] = 19;
  2322  0257  3013               	movlw	19
  2323  0258  00FF               	movwf	btemp+1
  2324  0259  087F               	movf	btemp+1,w
  2325  025A  00EA               	movwf	_Display_Array+3
  2326                           
  2327                           ;Li_ion_main.c: 467:         }
  2328  025B  2A6E               	goto	l2759
  2329  025C                     l2753:
  2330  025C  3000               	movlw	0
  2331  025D  0251               	subwf	_Display_Volt+1,w
  2332  025E  3066               	movlw	102
  2333  025F  1903               	skipnz
  2334  0260  0250               	subwf	_Display_Volt,w
  2335  0261  1C03               	skipc
  2336  0262  2A64               	goto	u2811
  2337  0263  2A65               	goto	u2810
  2338  0264                     u2811:
  2339  0264  2A6A               	goto	l2757
  2340  0265                     u2810:
  2341  0265                     l2755:
  2342                           
  2343                           ;Li_ion_main.c: 469:         {;Li_ion_main.c: 470:             Display_Array[3] = 18;
  2344  0265  3012               	movlw	18
  2345  0266  00FF               	movwf	btemp+1
  2346  0267  087F               	movf	btemp+1,w
  2347  0268  00EA               	movwf	_Display_Array+3
  2348                           
  2349                           ;Li_ion_main.c: 471:         }
  2350  0269  2A6E               	goto	l2759
  2351  026A                     l2757:
  2352                           
  2353                           ;Li_ion_main.c: 473:         {;Li_ion_main.c: 474:             Display_Array[3] = 23;
  2354  026A  3017               	movlw	23
  2355  026B  00FF               	movwf	btemp+1
  2356  026C  087F               	movf	btemp+1,w
  2357  026D  00EA               	movwf	_Display_Array+3
  2358  026E                     l2759:
  2359                           
  2360                           ;Li_ion_main.c: 476:         if(Display_Change==0)
  2361  026E  0856               	movf	_Display_Change,w
  2362  026F  1D03               	btfss	3,2
  2363  0270  2A72               	goto	u2821
  2364  0271  2A73               	goto	u2820
  2365  0272                     u2821:
  2366  0272  2A7C               	goto	l2763
  2367  0273                     u2820:
  2368  0273                     l2761:
  2369                           
  2370                           ;Li_ion_main.c: 477:         {;Li_ion_main.c: 478:             Data2Array(Display_Array,
      +                          Display_Current);
  2371  0273  084F               	movf	_Display_Current+1,w
  2372  0274  00A1               	movwf	Data2Array@data+1
  2373  0275  084E               	movf	_Display_Current,w
  2374  0276  00A0               	movwf	Data2Array@data
  2375  0277  3067               	movlw	(low (_Display_Array| 0))& (0+255)
  2376  0278  158A  25C9  118A   	fcall	_Data2Array
  2377                           
  2378                           ;Li_ion_main.c: 479:         }
  2379  027B  2A89               	goto	l2767
  2380  027C                     l2763:
  2381  027C  0356               	decf	_Display_Change,w
  2382  027D  1D03               	btfss	3,2
  2383  027E  2A80               	goto	u2831
  2384  027F  2A81               	goto	u2830
  2385  0280                     u2831:
  2386  0280  2A89               	goto	l2767
  2387  0281                     u2830:
  2388  0281                     l2765:
  2389                           
  2390                           ;Li_ion_main.c: 481:         {;Li_ion_main.c: 482:             Data2Array(Display_Array,
      +                          Display_Volt);
  2391  0281  0851               	movf	_Display_Volt+1,w
  2392  0282  00A1               	movwf	Data2Array@data+1
  2393  0283  0850               	movf	_Display_Volt,w
  2394  0284  00A0               	movwf	Data2Array@data
  2395  0285  3067               	movlw	(low (_Display_Array| 0))& (0+255)
  2396  0286  158A  25C9  118A   	fcall	_Data2Array
  2397  0289                     l2767:
  2398                           
  2399                           ;Li_ion_main.c: 362:     while(State==Volt_Charge)
  2400  0289  3002               	movlw	2
  2401  028A  1283               	bcf	3,5	;RP0=0, select bank0
  2402  028B  1303               	bcf	3,6	;RP1=0, select bank0
  2403  028C  0657               	xorwf	_State,w
  2404  028D  1903               	btfsc	3,2
  2405  028E  2A90               	goto	u2841
  2406  028F  2A91               	goto	u2840
  2407  0290                     u2841:
  2408  0290  285D               	goto	l149
  2409  0291                     u2840:
  2410  0291                     l182:
  2411  0291  0008               	return
  2412  0292                     __end_of_VoltCharge_Function:
  2413                           
  2414                           	psect	text3
  2415  07EA                     __ptext3:	
  2416 ;; *************** function _TIM0_init *****************
  2417 ;; Defined at:
  2418 ;;		line 4 in file "TMR0.c"
  2419 ;; Parameters:    Size  Location     Type
  2420 ;;		None
  2421 ;; Auto vars:     Size  Location     Type
  2422 ;;		None
  2423 ;; Return value:  Size  Location     Type
  2424 ;;                  1    wreg      void 
  2425 ;; Registers used:
  2426 ;;		wreg, status,2, status,0, btemp+1
  2427 ;; Tracked objects:
  2428 ;;		On entry : 0/0
  2429 ;;		On exit  : 0/0
  2430 ;;		Unchanged: 0/0
  2431 ;; Data sizes:     COMMON   BANK0   BANK1   BANK2
  2432 ;;      Params:         0       0       0       0
  2433 ;;      Locals:         0       0       0       0
  2434 ;;      Temps:          0       0       0       0
  2435 ;;      Totals:         0       0       0       0
  2436 ;;Total ram usage:        0 bytes
  2437 ;; Hardware stack levels used:    1
  2438 ;; Hardware stack levels required when called:    3
  2439 ;; This function calls:
  2440 ;;		Nothing
  2441 ;; This function is called by:
  2442 ;;		_main
  2443 ;; This function uses a non-reentrant model
  2444 ;;
  2445                           
  2446                           
  2447                           ;psect for function _TIM0_init
  2448  07EA                     _TIM0_init:
  2449  07EA                     l2427:	
  2450                           ;incstack = 0
  2451                           ; Regs used in _TIM0_init: [wreg+status,2+status,0+btemp+1]
  2452                           
  2453                           
  2454                           ;TMR0.c: 6:    OPTION_REG &= ~(1<<5 |
  2455  07EA  30D7               	movlw	215
  2456  07EB  00FF               	movwf	btemp+1
  2457  07EC  087F               	movf	btemp+1,w
  2458  07ED  1683               	bsf	3,5	;RP0=1, select bank1
  2459  07EE  1303               	bcf	3,6	;RP1=0, select bank1
  2460  07EF  0581               	andwf	1,f	;volatile
  2461                           
  2462                           ;TMR0.c: 8:    OPTION_REG &= ~(7);
  2463  07F0  30F8               	movlw	248
  2464  07F1  00FF               	movwf	btemp+1
  2465  07F2  087F               	movf	btemp+1,w
  2466  07F3  0581               	andwf	1,f	;volatile
  2467                           
  2468                           ;TMR0.c: 9:    OPTION_REG |= 3;
  2469  07F4  3003               	movlw	3
  2470  07F5  00FF               	movwf	btemp+1
  2471  07F6  087F               	movf	btemp+1,w
  2472  07F7  0481               	iorwf	1,f	;volatile
  2473                           
  2474                           ;TMR0.c: 11:    INTCON |= (1<<7) |
  2475  07F8  30C0               	movlw	192
  2476  07F9  00FF               	movwf	btemp+1
  2477  07FA  087F               	movf	btemp+1,w
  2478  07FB  048B               	iorwf	11,f	;volatile
  2479  07FC                     l248:
  2480  07FC  0008               	return
  2481  07FD                     __end_of_TIM0_init:
  2482                           
  2483                           	psect	text4
  2484  0D6E                     __ptext4:	
  2485 ;; *************** function _TIM0_Start *****************
  2486 ;; Defined at:
  2487 ;;		line 15 in file "TMR0.c"
  2488 ;; Parameters:    Size  Location     Type
  2489 ;;		None
  2490 ;; Auto vars:     Size  Location     Type
  2491 ;;		None
  2492 ;; Return value:  Size  Location     Type
  2493 ;;                  1    wreg      void 
  2494 ;; Registers used:
  2495 ;;		wreg, status,2, status,0, btemp+1
  2496 ;; Tracked objects:
  2497 ;;		On entry : 0/0
  2498 ;;		On exit  : 0/0
  2499 ;;		Unchanged: 0/0
  2500 ;; Data sizes:     COMMON   BANK0   BANK1   BANK2
  2501 ;;      Params:         0       0       0       0
  2502 ;;      Locals:         0       0       0       0
  2503 ;;      Temps:          0       0       0       0
  2504 ;;      Totals:         0       0       0       0
  2505 ;;Total ram usage:        0 bytes
  2506 ;; Hardware stack levels used:    1
  2507 ;; Hardware stack levels required when called:    3
  2508 ;; This function calls:
  2509 ;;		Nothing
  2510 ;; This function is called by:
  2511 ;;		_main
  2512 ;; This function uses a non-reentrant model
  2513 ;;
  2514                           
  2515                           
  2516                           ;psect for function _TIM0_Start
  2517  0D6E                     _TIM0_Start:
  2518  0D6E                     l2429:	
  2519                           ;incstack = 0
  2520                           ; Regs used in _TIM0_Start: [wreg+status,2+status,0+btemp+1]
  2521                           
  2522                           
  2523                           ;TMR0.c: 17:     INTCON &= ~(1<<2);
  2524  0D6E  30FB               	movlw	251
  2525  0D6F  00FF               	movwf	btemp+1
  2526  0D70  087F               	movf	btemp+1,w
  2527  0D71  058B               	andwf	11,f	;volatile
  2528  0D72                     l2431:
  2529                           
  2530                           ;TMR0.c: 18:     INTCON |= (1<<5);
  2531  0D72  168B               	bsf	11,5	;volatile
  2532  0D73                     l2433:
  2533                           
  2534                           ;TMR0.c: 19:     TMR0 = 0;
  2535  0D73  1283               	bcf	3,5	;RP0=0, select bank0
  2536  0D74  1303               	bcf	3,6	;RP1=0, select bank0
  2537  0D75  0181               	clrf	1	;volatile
  2538  0D76                     l251:
  2539  0D76  0008               	return
  2540  0D77                     __end_of_TIM0_Start:
  2541                           
  2542                           	psect	text5
  2543  0D5E                     __ptext5:	
  2544 ;; *************** function _PWM_Start *****************
  2545 ;; Defined at:
  2546 ;;		line 38 in file "PWM.c"
  2547 ;; Parameters:    Size  Location     Type
  2548 ;;		None
  2549 ;; Auto vars:     Size  Location     Type
  2550 ;;		None
  2551 ;; Return value:  Size  Location     Type
  2552 ;;                  1    wreg      void 
  2553 ;; Registers used:
  2554 ;;		None
  2555 ;; Tracked objects:
  2556 ;;		On entry : 0/0
  2557 ;;		On exit  : 0/0
  2558 ;;		Unchanged: 0/0
  2559 ;; Data sizes:     COMMON   BANK0   BANK1   BANK2
  2560 ;;      Params:         0       0       0       0
  2561 ;;      Locals:         0       0       0       0
  2562 ;;      Temps:          0       0       0       0
  2563 ;;      Totals:         0       0       0       0
  2564 ;;Total ram usage:        0 bytes
  2565 ;; Hardware stack levels used:    1
  2566 ;; Hardware stack levels required when called:    3
  2567 ;; This function calls:
  2568 ;;		Nothing
  2569 ;; This function is called by:
  2570 ;;		_main
  2571 ;; This function uses a non-reentrant model
  2572 ;;
  2573                           
  2574                           
  2575                           ;psect for function _PWM_Start
  2576  0D5E                     _PWM_Start:
  2577  0D5E                     l2435:	
  2578                           ;incstack = 0
  2579                           ; Regs used in _PWM_Start: []
  2580                           
  2581                           
  2582                           ;PWM.c: 40:     T2CON |= 1<<2;
  2583  0D5E  1283               	bcf	3,5	;RP0=0, select bank0
  2584  0D5F  1303               	bcf	3,6	;RP1=0, select bank0
  2585  0D60  1512               	bsf	18,2	;volatile
  2586  0D61                     l283:
  2587  0D61  0008               	return
  2588  0D62                     __end_of_PWM_Start:
  2589                           
  2590                           	psect	text6
  2591  06B9                     __ptext6:	
  2592 ;; *************** function _PWM_Init *****************
  2593 ;; Defined at:
  2594 ;;		line 6 in file "PWM.c"
  2595 ;; Parameters:    Size  Location     Type
  2596 ;;  PWMData         1    wreg     PTR struct .
  2597 ;;		 -> PWM_1(5), 
  2598 ;; Auto vars:     Size  Location     Type
  2599 ;;  PWMData         1   43[BANK0 ] PTR struct .
  2600 ;;		 -> PWM_1(5), 
  2601 ;;  Fclk            4   36[BANK0 ] unsigned long 
  2602 ;;  presc_val       3   33[BANK0 ] unsigned char [3]
  2603 ;;  presc           3   30[BANK0 ] unsigned char [3]
  2604 ;;  PR2_Val         2   40[BANK0 ] unsigned int 
  2605 ;;  index           1   42[BANK0 ] unsigned char 
  2606 ;; Return value:  Size  Location     Type
  2607 ;;                  1    wreg      void 
  2608 ;; Registers used:
  2609 ;;		wreg, fsr0l, fsr0h, status,2, status,0, btemp+1, pclath, cstack
  2610 ;; Tracked objects:
  2611 ;;		On entry : 0/0
  2612 ;;		On exit  : 0/0
  2613 ;;		Unchanged: 0/0
  2614 ;; Data sizes:     COMMON   BANK0   BANK1   BANK2
  2615 ;;      Params:         0       0       0       0
  2616 ;;      Locals:         0      14       0       0
  2617 ;;      Temps:          0       2       0       0
  2618 ;;      Totals:         0      16       0       0
  2619 ;;Total ram usage:       16 bytes
  2620 ;; Hardware stack levels used:    1
  2621 ;; Hardware stack levels required when called:    4
  2622 ;; This function calls:
  2623 ;;		___aldiv
  2624 ;;		___lldiv
  2625 ;;		___lmul
  2626 ;; This function is called by:
  2627 ;;		_main
  2628 ;; This function uses a non-reentrant model
  2629 ;;
  2630                           
  2631                           
  2632                           ;psect for function _PWM_Init
  2633  06B9                     _PWM_Init:
  2634                           
  2635                           ;incstack = 0
  2636                           ; Regs used in _PWM_Init: [wreg-fsr0h+status,2+status,0+btemp+1+pclath+cstack]
  2637                           ;PWM_Init@PWMData stored from wreg
  2638  06B9  1283               	bcf	3,5	;RP0=0, select bank0
  2639  06BA  1303               	bcf	3,6	;RP1=0, select bank0
  2640  06BB  00CB               	movwf	PWM_Init@PWMData
  2641  06BC                     l1771:
  2642                           
  2643                           ;PWM.c: 6: void PWM_Init(PWM_TypeDef *PWMData);PWM.c: 7: {;PWM.c: 8:     char presc[3]={
      +                          1,4,16};
  2644  06BC  0864               	movf	PWM_Init@F1231,w
  2645  06BD  00BE               	movwf	PWM_Init@presc
  2646  06BE  0865               	movf	PWM_Init@F1231+1,w
  2647  06BF  00BF               	movwf	PWM_Init@presc+1
  2648  06C0  0866               	movf	PWM_Init@F1231+2,w
  2649  06C1  00C0               	movwf	PWM_Init@presc+2
  2650                           
  2651                           ;PWM.c: 9:     char presc_val[]={0,1,2};
  2652  06C2  0861               	movf	PWM_Init@F1233,w
  2653  06C3  00C1               	movwf	PWM_Init@presc_val
  2654  06C4  0862               	movf	PWM_Init@F1233+1,w
  2655  06C5  00C2               	movwf	PWM_Init@presc_val+1
  2656  06C6  0863               	movf	PWM_Init@F1233+2,w
  2657  06C7  00C3               	movwf	PWM_Init@presc_val+2
  2658  06C8                     l1773:
  2659                           
  2660                           ;PWM.c: 10:     char index;;PWM.c: 11:     unsigned long Fclk;;PWM.c: 12:     unsigned i
      +                          nt PR2_Val;;PWM.c: 13:     for(index=0;index<3;index++)
  2661  06C8  01CA               	clrf	PWM_Init@index
  2662  06C9                     l1779:
  2663                           
  2664                           ;PWM.c: 14:     {;PWM.c: 15:         Fclk = 4000000 /(presc[index]*4);
  2665  06C9  084A               	movf	PWM_Init@index,w
  2666  06CA  3E3E               	addlw	(low (PWM_Init@presc| 0))& (0+255)
  2667  06CB  0084               	movwf	4
  2668  06CC  1383               	bcf	3,7	;select IRP bank0
  2669  06CD  0800               	movf	0,w
  2670  06CE  00BC               	movwf	??_PWM_Init
  2671  06CF  01BD               	clrf	??_PWM_Init+1
  2672  06D0  1003               	clrc
  2673  06D1  0DBC               	rlf	??_PWM_Init,f
  2674  06D2  0DBD               	rlf	??_PWM_Init+1,f
  2675  06D3  1003               	clrc
  2676  06D4  0DBC               	rlf	??_PWM_Init,f
  2677  06D5  0DBD               	rlf	??_PWM_Init+1,f
  2678  06D6  083C               	movf	??_PWM_Init,w
  2679  06D7  00AD               	movwf	___aldiv@divisor
  2680  06D8  083D               	movf	??_PWM_Init+1,w
  2681  06D9  00AE               	movwf	___aldiv@divisor+1
  2682  06DA  3000               	movlw	0
  2683  06DB  1BAE               	btfsc	___aldiv@divisor+1,7
  2684  06DC  30FF               	movlw	255
  2685  06DD  00AF               	movwf	___aldiv@divisor+2
  2686  06DE  00B0               	movwf	___aldiv@divisor+3
  2687  06DF  3000               	movlw	0
  2688  06E0  00B4               	movwf	___aldiv@dividend+3
  2689  06E1  303D               	movlw	61
  2690  06E2  00B3               	movwf	___aldiv@dividend+2
  2691  06E3  3009               	movlw	9
  2692  06E4  00B2               	movwf	___aldiv@dividend+1
  2693  06E5  3000               	movlw	0
  2694  06E6  00B1               	movwf	___aldiv@dividend
  2695  06E7  158A  2763  118A   	fcall	___aldiv
  2696  06EA  1283               	bcf	3,5	;RP0=0, select bank0
  2697  06EB  1303               	bcf	3,6	;RP1=0, select bank0
  2698  06EC  0830               	movf	?___aldiv+3,w
  2699  06ED  00C7               	movwf	PWM_Init@Fclk+3
  2700  06EE  082F               	movf	?___aldiv+2,w
  2701  06EF  00C6               	movwf	PWM_Init@Fclk+2
  2702  06F0  082E               	movf	?___aldiv+1,w
  2703  06F1  00C5               	movwf	PWM_Init@Fclk+1
  2704  06F2  082D               	movf	?___aldiv,w
  2705  06F3  00C4               	movwf	PWM_Init@Fclk
  2706                           
  2707                           ;PWM.c: 16:         PR2_Val= PWMData->Period*Fclk/1000000 -1;
  2708  06F4  3000               	movlw	0
  2709  06F5  00B0               	movwf	___lldiv@divisor+3
  2710  06F6  300F               	movlw	15
  2711  06F7  00AF               	movwf	___lldiv@divisor+2
  2712  06F8  3042               	movlw	66
  2713  06F9  00AE               	movwf	___lldiv@divisor+1
  2714  06FA  3040               	movlw	64
  2715  06FB  00AD               	movwf	___lldiv@divisor
  2716  06FC  084B               	movf	PWM_Init@PWMData,w
  2717  06FD  0084               	movwf	4
  2718  06FE  1383               	bcf	3,7	;select IRP bank0
  2719  06FF  0800               	movf	0,w
  2720  0700  00BC               	movwf	??_PWM_Init
  2721  0701  0A84               	incf	4,f
  2722  0702  0800               	movf	0,w
  2723  0703  00BD               	movwf	??_PWM_Init+1
  2724  0704  083C               	movf	??_PWM_Init,w
  2725  0705  00A0               	movwf	___lmul@multiplier
  2726  0706  083D               	movf	??_PWM_Init+1,w
  2727  0707  00A1               	movwf	___lmul@multiplier+1
  2728  0708  01A2               	clrf	___lmul@multiplier+2
  2729  0709  01A3               	clrf	___lmul@multiplier+3
  2730  070A  0847               	movf	PWM_Init@Fclk+3,w
  2731  070B  00A7               	movwf	___lmul@multiplicand+3
  2732  070C  0846               	movf	PWM_Init@Fclk+2,w
  2733  070D  00A6               	movwf	___lmul@multiplicand+2
  2734  070E  0845               	movf	PWM_Init@Fclk+1,w
  2735  070F  00A5               	movwf	___lmul@multiplicand+1
  2736  0710  0844               	movf	PWM_Init@Fclk,w
  2737  0711  00A4               	movwf	___lmul@multiplicand
  2738  0712  118A  27A2  118A   	fcall	___lmul
  2739  0715  1283               	bcf	3,5	;RP0=0, select bank0
  2740  0716  1303               	bcf	3,6	;RP1=0, select bank0
  2741  0717  0823               	movf	?___lmul+3,w
  2742  0718  00B4               	movwf	___lldiv@dividend+3
  2743  0719  0822               	movf	?___lmul+2,w
  2744  071A  00B3               	movwf	___lldiv@dividend+2
  2745  071B  0821               	movf	?___lmul+1,w
  2746  071C  00B2               	movwf	___lldiv@dividend+1
  2747  071D  0820               	movf	?___lmul,w
  2748  071E  00B1               	movwf	___lldiv@dividend
  2749  071F  158A  266B  118A   	fcall	___lldiv
  2750  0722  1283               	bcf	3,5	;RP0=0, select bank0
  2751  0723  1303               	bcf	3,6	;RP1=0, select bank0
  2752  0724  082D               	movf	?___lldiv,w
  2753  0725  3EFF               	addlw	255
  2754  0726  00C8               	movwf	PWM_Init@PR2_Val
  2755  0727  082E               	movf	?___lldiv+1,w
  2756  0728  1803               	skipnc
  2757  0729  3E01               	addlw	1
  2758  072A  3EFF               	addlw	255
  2759  072B  00C9               	movwf	PWM_Init@PR2_Val+1
  2760  072C                     l1781:
  2761                           
  2762                           ;PWM.c: 17:         if (PR2_Val<=255)
  2763  072C  3001               	movlw	1
  2764  072D  0249               	subwf	PWM_Init@PR2_Val+1,w
  2765  072E  3000               	movlw	0
  2766  072F  1903               	skipnz
  2767  0730  0248               	subwf	PWM_Init@PR2_Val,w
  2768  0731  1803               	skipnc
  2769  0732  2F34               	goto	u1371
  2770  0733  2F35               	goto	u1370
  2771  0734                     u1371:
  2772  0734  2F36               	goto	l1785
  2773  0735                     u1370:
  2774  0735  2F40               	goto	l1789
  2775  0736                     l1785:
  2776                           
  2777                           ;PWM.c: 19:     }
  2778  0736  3001               	movlw	1
  2779  0737  00FF               	movwf	btemp+1
  2780  0738  087F               	movf	btemp+1,w
  2781  0739  07CA               	addwf	PWM_Init@index,f
  2782  073A                     l1787:
  2783  073A  3003               	movlw	3
  2784  073B  024A               	subwf	PWM_Init@index,w
  2785  073C  1C03               	skipc
  2786  073D  2F3F               	goto	u1381
  2787  073E  2F40               	goto	u1380
  2788  073F                     u1381:
  2789  073F  2EC9               	goto	l1779
  2790  0740                     u1380:
  2791  0740                     l1789:
  2792                           
  2793                           ;PWM.c: 20:     PR2=PR2_Val;
  2794  0740  0848               	movf	PWM_Init@PR2_Val,w
  2795  0741  1683               	bsf	3,5	;RP0=1, select bank1
  2796  0742  1303               	bcf	3,6	;RP1=0, select bank1
  2797  0743  0092               	movwf	18	;volatile
  2798  0744                     l1791:
  2799                           
  2800                           ;PWM.c: 21:     T2CON = presc_val[index];
  2801  0744  1283               	bcf	3,5	;RP0=0, select bank0
  2802  0745  1303               	bcf	3,6	;RP1=0, select bank0
  2803  0746  084A               	movf	PWM_Init@index,w
  2804  0747  3E41               	addlw	(low (PWM_Init@presc_val| 0))& (0+255)
  2805  0748  0084               	movwf	4
  2806  0749  1383               	bcf	3,7	;select IRP bank0
  2807  074A  0800               	movf	0,w
  2808  074B  0092               	movwf	18	;volatile
  2809  074C                     l1793:
  2810                           
  2811                           ;PWM.c: 22:     if ( 1==PWMData->CCP )
  2812  074C  084B               	movf	PWM_Init@PWMData,w
  2813  074D  3E04               	addlw	4
  2814  074E  0084               	movwf	4
  2815  074F  0300               	decf	0,w
  2816  0750  1D03               	btfss	3,2
  2817  0751  2F53               	goto	u1391
  2818  0752  2F54               	goto	u1390
  2819  0753                     u1391:
  2820  0753  2F7B               	goto	l1799
  2821  0754                     u1390:
  2822  0754                     l1795:
  2823                           
  2824                           ;PWM.c: 23:     {;PWM.c: 24:         CCPR1L = PWMData->Ton>>2;
  2825  0754  084B               	movf	PWM_Init@PWMData,w
  2826  0755  3E02               	addlw	2
  2827  0756  0084               	movwf	4
  2828  0757  0800               	movf	0,w
  2829  0758  00BC               	movwf	??_PWM_Init
  2830  0759  0A84               	incf	4,f
  2831  075A  0800               	movf	0,w
  2832  075B  00BD               	movwf	??_PWM_Init+1
  2833  075C  1003               	clrc
  2834  075D  0CBD               	rrf	??_PWM_Init+1,f
  2835  075E  0CBC               	rrf	??_PWM_Init,f
  2836  075F  1003               	clrc
  2837  0760  0CBD               	rrf	??_PWM_Init+1,f
  2838  0761  0CBC               	rrf	??_PWM_Init,f
  2839  0762  083C               	movf	??_PWM_Init,w
  2840  0763  0095               	movwf	21	;volatile
  2841                           
  2842                           ;PWM.c: 25:         CCP1CON= (PWMData->Ton &0x3)<<4 |
  2843  0764  084B               	movf	PWM_Init@PWMData,w
  2844  0765  3E02               	addlw	2
  2845  0766  0084               	movwf	4
  2846  0767  0800               	movf	0,w
  2847  0768  3903               	andlw	3
  2848  0769  00BC               	movwf	??_PWM_Init
  2849  076A  3003               	movlw	3
  2850  076B                     u1405:
  2851  076B  1003               	clrc
  2852  076C  0DBC               	rlf	??_PWM_Init,f
  2853  076D  3EFF               	addlw	-1
  2854  076E  1D03               	skipz
  2855  076F  2F6B               	goto	u1405
  2856  0770  1003               	clrc
  2857  0771  0D3C               	rlf	??_PWM_Init,w
  2858  0772  380C               	iorlw	12
  2859  0773  0097               	movwf	23	;volatile
  2860  0774                     l1797:
  2861                           
  2862                           ;PWM.c: 27:         TRISC &= ~(1<<2);
  2863  0774  30FB               	movlw	251
  2864  0775  00FF               	movwf	btemp+1
  2865  0776  087F               	movf	btemp+1,w
  2866  0777  1683               	bsf	3,5	;RP0=1, select bank1
  2867  0778  1303               	bcf	3,6	;RP1=0, select bank1
  2868  0779  0587               	andwf	7,f	;volatile
  2869                           
  2870                           ;PWM.c: 28:     }
  2871  077A  2FA1               	goto	l280
  2872  077B                     l1799:
  2873                           
  2874                           ;PWM.c: 30:     {;PWM.c: 31:         CCPR2L = PWMData->Ton>>2;
  2875  077B  084B               	movf	PWM_Init@PWMData,w
  2876  077C  3E02               	addlw	2
  2877  077D  0084               	movwf	4
  2878  077E  0800               	movf	0,w
  2879  077F  00BC               	movwf	??_PWM_Init
  2880  0780  0A84               	incf	4,f
  2881  0781  0800               	movf	0,w
  2882  0782  00BD               	movwf	??_PWM_Init+1
  2883  0783  1003               	clrc
  2884  0784  0CBD               	rrf	??_PWM_Init+1,f
  2885  0785  0CBC               	rrf	??_PWM_Init,f
  2886  0786  1003               	clrc
  2887  0787  0CBD               	rrf	??_PWM_Init+1,f
  2888  0788  0CBC               	rrf	??_PWM_Init,f
  2889  0789  083C               	movf	??_PWM_Init,w
  2890  078A  009B               	movwf	27	;volatile
  2891                           
  2892                           ;PWM.c: 32:         CCP2CON= (PWMData->Ton &0x3)<<4 |
  2893  078B  084B               	movf	PWM_Init@PWMData,w
  2894  078C  3E02               	addlw	2
  2895  078D  0084               	movwf	4
  2896  078E  0800               	movf	0,w
  2897  078F  3903               	andlw	3
  2898  0790  00BC               	movwf	??_PWM_Init
  2899  0791  3003               	movlw	3
  2900  0792                     u1415:
  2901  0792  1003               	clrc
  2902  0793  0DBC               	rlf	??_PWM_Init,f
  2903  0794  3EFF               	addlw	-1
  2904  0795  1D03               	skipz
  2905  0796  2F92               	goto	u1415
  2906  0797  1003               	clrc
  2907  0798  0D3C               	rlf	??_PWM_Init,w
  2908  0799  380C               	iorlw	12
  2909  079A  009D               	movwf	29	;volatile
  2910  079B                     l1801:
  2911                           
  2912                           ;PWM.c: 34:          TRISC &= ~(1<<1);
  2913  079B  30FD               	movlw	253
  2914  079C  00FF               	movwf	btemp+1
  2915  079D  087F               	movf	btemp+1,w
  2916  079E  1683               	bsf	3,5	;RP0=1, select bank1
  2917  079F  1303               	bcf	3,6	;RP1=0, select bank1
  2918  07A0  0587               	andwf	7,f	;volatile
  2919  07A1                     l280:
  2920  07A1  0008               	return
  2921  07A2                     __end_of_PWM_Init:
  2922                           
  2923                           	psect	text7
  2924  04B0                     __ptext7:	
  2925 ;; *************** function _FullCharge_Function *****************
  2926 ;; Defined at:
  2927 ;;		line 487 in file "Li_ion_main.c"
  2928 ;; Parameters:    Size  Location     Type
  2929 ;;		None
  2930 ;; Auto vars:     Size  Location     Type
  2931 ;;  i               1   31[BANK0 ] unsigned char 
  2932 ;;  Volt_Value      2   32[BANK0 ] unsigned int 
  2933 ;;  Total_Count     1   30[BANK0 ] unsigned char 
  2934 ;; Return value:  Size  Location     Type
  2935 ;;                  1    wreg      void 
  2936 ;; Registers used:
  2937 ;;		wreg, fsr0l, fsr0h, status,2, status,0, btemp+1, pclath, cstack
  2938 ;; Tracked objects:
  2939 ;;		On entry : 0/0
  2940 ;;		On exit  : 0/0
  2941 ;;		Unchanged: 0/0
  2942 ;; Data sizes:     COMMON   BANK0   BANK1   BANK2
  2943 ;;      Params:         0       0       0       0
  2944 ;;      Locals:         0       4       0       0
  2945 ;;      Temps:          0       2       0       0
  2946 ;;      Totals:         0       6       0       0
  2947 ;;Total ram usage:        6 bytes
  2948 ;; Hardware stack levels used:    1
  2949 ;; Hardware stack levels required when called:    4
  2950 ;; This function calls:
  2951 ;;		_Data2Array
  2952 ;;		___aldiv
  2953 ;;		___lmul
  2954 ;; This function is called by:
  2955 ;;		_main
  2956 ;; This function uses a non-reentrant model
  2957 ;;
  2958                           
  2959                           
  2960                           ;psect for function _FullCharge_Function
  2961  04B0                     _FullCharge_Function:
  2962  04B0                     l2769:	
  2963                           ;incstack = 0
  2964                           ; Regs used in _FullCharge_Function: [wreg-fsr0h+status,2+status,0+btemp+1+pclath+cstack
      +                          ]
  2965                           
  2966                           
  2967                           ;Li_ion_main.c: 489:     unsigned int Volt_Value=0;
  2968  04B0  1283               	bcf	3,5	;RP0=0, select bank0
  2969  04B1  1303               	bcf	3,6	;RP1=0, select bank0
  2970  04B2  01C0               	clrf	FullCharge_Function@Volt_Value
  2971  04B3  01C1               	clrf	FullCharge_Function@Volt_Value+1
  2972                           
  2973                           ;Li_ion_main.c: 490:     char Total_Count=0;
  2974  04B4  01BE               	clrf	FullCharge_Function@Total_Count
  2975                           
  2976                           ;Li_ion_main.c: 491:     Volt_Value=0;
  2977  04B5  01C0               	clrf	FullCharge_Function@Volt_Value
  2978  04B6  01C1               	clrf	FullCharge_Function@Volt_Value+1
  2979                           
  2980                           ;Li_ion_main.c: 492:     PWM_Value=0;
  2981  04B7  01D4               	clrf	_PWM_Value
  2982  04B8  01D5               	clrf	_PWM_Value+1
  2983  04B9                     l2771:
  2984                           
  2985                           ;Li_ion_main.c: 493:     CCPR1L = PWM_Value>>2;
  2986  04B9  0855               	movf	_PWM_Value+1,w
  2987  04BA  00BD               	movwf	??_FullCharge_Function+1
  2988  04BB  0854               	movf	_PWM_Value,w
  2989  04BC  00BC               	movwf	??_FullCharge_Function
  2990  04BD  1003               	clrc
  2991  04BE  0CBD               	rrf	??_FullCharge_Function+1,f
  2992  04BF  0CBC               	rrf	??_FullCharge_Function,f
  2993  04C0  1003               	clrc
  2994  04C1  0CBD               	rrf	??_FullCharge_Function+1,f
  2995  04C2  0CBC               	rrf	??_FullCharge_Function,f
  2996  04C3  083C               	movf	??_FullCharge_Function,w
  2997  04C4  0095               	movwf	21	;volatile
  2998  04C5                     l2773:
  2999                           
  3000                           ;Li_ion_main.c: 494:     CCP1CON= (PWM_Value &0x3)<<4 |
  3001  04C5  0854               	movf	_PWM_Value,w
  3002  04C6  3903               	andlw	3
  3003  04C7  00BC               	movwf	??_FullCharge_Function
  3004  04C8  3003               	movlw	3
  3005  04C9                     u2855:
  3006  04C9  1003               	clrc
  3007  04CA  0DBC               	rlf	??_FullCharge_Function,f
  3008  04CB  3EFF               	addlw	-1
  3009  04CC  1D03               	skipz
  3010  04CD  2CC9               	goto	u2855
  3011  04CE  1003               	clrc
  3012  04CF  0D3C               	rlf	??_FullCharge_Function,w
  3013  04D0  380C               	iorlw	12
  3014  04D1  0097               	movwf	23	;volatile
  3015                           
  3016                           ;Li_ion_main.c: 496:     while(State==Full_Charge)
  3017  04D2  2DB5               	goto	l2837
  3018  04D3                     l186:
  3019                           
  3020                           ;Li_ion_main.c: 497:     {;Li_ion_main.c: 498:         if(!(PORTC & (1<<0)))
  3021  04D3  1807               	btfsc	7,0	;volatile
  3022  04D4  2CD6               	goto	u2861
  3023  04D5  2CD7               	goto	u2860
  3024  04D6                     u2861:
  3025  04D6  2CDA               	goto	l2777
  3026  04D7                     u2860:
  3027  04D7                     l2775:
  3028                           
  3029                           ;Li_ion_main.c: 499:         {;Li_ion_main.c: 500:             SolarFlag=1;
  3030  04D7  01D8               	clrf	_SolarFlag
  3031  04D8  0AD8               	incf	_SolarFlag,f
  3032                           
  3033                           ;Li_ion_main.c: 502:         }
  3034  04D9  2CDB               	goto	l2779
  3035  04DA                     l2777:
  3036                           
  3037                           ;Li_ion_main.c: 504:         {;Li_ion_main.c: 505:             SolarFlag=0;
  3038  04DA  01D8               	clrf	_SolarFlag
  3039  04DB                     l2779:
  3040                           
  3041                           ;Li_ion_main.c: 508:         ADCON0 &= ~(0x0F<<2);
  3042  04DB  30C3               	movlw	195
  3043  04DC  00FF               	movwf	btemp+1
  3044  04DD  087F               	movf	btemp+1,w
  3045  04DE  059F               	andwf	31,f	;volatile
  3046  04DF                     l2781:
  3047                           
  3048                           ;Li_ion_main.c: 509:         ADCON0 |= (1<<2);
  3049  04DF  151F               	bsf	31,2	;volatile
  3050  04E0                     l2783:
  3051                           
  3052                           ;Li_ion_main.c: 510:         AD_Value=0;
  3053  04E0  01D2               	clrf	_AD_Value
  3054  04E1  01D3               	clrf	_AD_Value+1
  3055  04E2                     l2785:
  3056                           
  3057                           ;Li_ion_main.c: 511:         for(char i=0;i<16;i++)
  3058  04E2  01BF               	clrf	FullCharge_Function@i
  3059  04E3                     l189:
  3060                           
  3061                           ;Li_ion_main.c: 512:         {;Li_ion_main.c: 513:             ADCON0 |= (1<<1);
  3062  04E3  149F               	bsf	31,1	;volatile
  3063  04E4                     l191:	
  3064                           ;Li_ion_main.c: 515:                 ;
  3065                           
  3066                           
  3067                           ;Li_ion_main.c: 514:             while(ADCON0 & (1<<1))
  3068  04E4  189F               	btfsc	31,1	;volatile
  3069  04E5  2CE7               	goto	u2871
  3070  04E6  2CE8               	goto	u2870
  3071  04E7                     u2871:
  3072  04E7  2CE4               	goto	l191
  3073  04E8                     u2870:
  3074  04E8                     l2791:
  3075                           
  3076                           ;Li_ion_main.c: 516:             AD_Value+=(int)ADRESH<<8 | ADRESL;
  3077  04E8  1683               	bsf	3,5	;RP0=1, select bank1
  3078  04E9  1303               	bcf	3,6	;RP1=0, select bank1
  3079  04EA  081E               	movf	30,w	;volatile
  3080  04EB  1283               	bcf	3,5	;RP0=0, select bank0
  3081  04EC  1303               	bcf	3,6	;RP1=0, select bank0
  3082  04ED  07D2               	addwf	_AD_Value,f
  3083  04EE  1803               	skipnc
  3084  04EF  0AD3               	incf	_AD_Value+1,f
  3085  04F0  081E               	movf	30,w	;volatile
  3086  04F1  07D3               	addwf	_AD_Value+1,f
  3087                           
  3088                           ;Li_ion_main.c: 517:             _delay((unsigned long)((1)*(4000000/4000.0)));
  3089  04F2  30C7               	movlw	199
  3090  04F3  1283               	bcf	3,5	;RP0=0, select bank0
  3091  04F4  1303               	bcf	3,6	;RP1=0, select bank0
  3092  04F5  00BC               	movwf	??_FullCharge_Function
  3093  04F6                     u3017:
  3094  04F6  2CF7               	nop2
  3095  04F7  0BBC               	decfsz	??_FullCharge_Function,f
  3096  04F8  2CF6               	goto	u3017
  3097  04F9  2CFA               	nop2
  3098  04FA  0000               	nop
  3099  04FB                     l2793:
  3100                           
  3101                           ;Li_ion_main.c: 518:         }
  3102  04FB  3001               	movlw	1
  3103  04FC  00FF               	movwf	btemp+1
  3104  04FD  087F               	movf	btemp+1,w
  3105  04FE  1283               	bcf	3,5	;RP0=0, select bank0
  3106  04FF  1303               	bcf	3,6	;RP1=0, select bank0
  3107  0500  07BF               	addwf	FullCharge_Function@i,f
  3108  0501                     l2795:
  3109  0501  3010               	movlw	16
  3110  0502  023F               	subwf	FullCharge_Function@i,w
  3111  0503  1C03               	skipc
  3112  0504  2D06               	goto	u2881
  3113  0505  2D07               	goto	u2880
  3114  0506                     u2881:
  3115  0506  2CE3               	goto	l189
  3116  0507                     u2880:
  3117  0507                     l2797:
  3118                           
  3119                           ;Li_ion_main.c: 519:         Volt_Value+=(AD_Value>>4);
  3120  0507  0853               	movf	_AD_Value+1,w
  3121  0508  00BD               	movwf	??_FullCharge_Function+1
  3122  0509  0852               	movf	_AD_Value,w
  3123  050A  00BC               	movwf	??_FullCharge_Function
  3124  050B  3004               	movlw	4
  3125  050C                     u2895:
  3126  050C  1003               	clrc
  3127  050D  0CBD               	rrf	??_FullCharge_Function+1,f
  3128  050E  0CBC               	rrf	??_FullCharge_Function,f
  3129  050F  3EFF               	addlw	-1
  3130  0510  1D03               	skipz
  3131  0511  2D0C               	goto	u2895
  3132  0512  083C               	movf	??_FullCharge_Function,w
  3133  0513  07C0               	addwf	FullCharge_Function@Volt_Value,f
  3134  0514  1803               	skipnc
  3135  0515  0AC1               	incf	FullCharge_Function@Volt_Value+1,f
  3136  0516  083D               	movf	??_FullCharge_Function+1,w
  3137  0517  07C1               	addwf	FullCharge_Function@Volt_Value+1,f
  3138  0518                     l2799:
  3139                           
  3140                           ;Li_ion_main.c: 520:         Total_Count++;
  3141  0518  3001               	movlw	1
  3142  0519  00FF               	movwf	btemp+1
  3143  051A  087F               	movf	btemp+1,w
  3144  051B  07BE               	addwf	FullCharge_Function@Total_Count,f
  3145  051C                     l2801:
  3146                           
  3147                           ;Li_ion_main.c: 521:         if(Total_Count>=4)
  3148  051C  3004               	movlw	4
  3149  051D  023E               	subwf	FullCharge_Function@Total_Count,w
  3150  051E  1C03               	skipc
  3151  051F  2D21               	goto	u2901
  3152  0520  2D22               	goto	u2900
  3153  0521                     u2901:
  3154  0521  2D69               	goto	l2813
  3155  0522                     u2900:
  3156  0522                     l2803:
  3157                           
  3158                           ;Li_ion_main.c: 522:         {;Li_ion_main.c: 523:             Total_Count=0;
  3159  0522  01BE               	clrf	FullCharge_Function@Total_Count
  3160  0523                     l2805:
  3161                           
  3162                           ;Li_ion_main.c: 524:             Volt_Value=Volt_Value>>2;
  3163  0523  0841               	movf	FullCharge_Function@Volt_Value+1,w
  3164  0524  00BD               	movwf	??_FullCharge_Function+1
  3165  0525  0840               	movf	FullCharge_Function@Volt_Value,w
  3166  0526  00BC               	movwf	??_FullCharge_Function
  3167  0527  1003               	clrc
  3168  0528  0CBD               	rrf	??_FullCharge_Function+1,f
  3169  0529  0CBC               	rrf	??_FullCharge_Function,f
  3170  052A  1003               	clrc
  3171  052B  0CBD               	rrf	??_FullCharge_Function+1,f
  3172  052C  0CBC               	rrf	??_FullCharge_Function,f
  3173  052D  083C               	movf	??_FullCharge_Function,w
  3174  052E  00C0               	movwf	FullCharge_Function@Volt_Value
  3175  052F  083D               	movf	??_FullCharge_Function+1,w
  3176  0530  00C1               	movwf	FullCharge_Function@Volt_Value+1
  3177  0531                     l2807:
  3178                           
  3179                           ;Li_ion_main.c: 525:             Display_Volt=((long)140*Volt_Value)/512;
  3180  0531  3000               	movlw	0
  3181  0532  00B0               	movwf	___aldiv@divisor+3
  3182  0533  3000               	movlw	0
  3183  0534  00AF               	movwf	___aldiv@divisor+2
  3184  0535  3002               	movlw	2
  3185  0536  00AE               	movwf	___aldiv@divisor+1
  3186  0537  3000               	movlw	0
  3187  0538  00AD               	movwf	___aldiv@divisor
  3188  0539  0840               	movf	FullCharge_Function@Volt_Value,w
  3189  053A  00A0               	movwf	___lmul@multiplier
  3190  053B  0841               	movf	FullCharge_Function@Volt_Value+1,w
  3191  053C  00A1               	movwf	___lmul@multiplier+1
  3192  053D  01A2               	clrf	___lmul@multiplier+2
  3193  053E  01A3               	clrf	___lmul@multiplier+3
  3194  053F  3000               	movlw	0
  3195  0540  00A7               	movwf	___lmul@multiplicand+3
  3196  0541  3000               	movlw	0
  3197  0542  00A6               	movwf	___lmul@multiplicand+2
  3198  0543  3000               	movlw	0
  3199  0544  00A5               	movwf	___lmul@multiplicand+1
  3200  0545  308C               	movlw	140
  3201  0546  00A4               	movwf	___lmul@multiplicand
  3202  0547  118A  27A2  118A   	fcall	___lmul
  3203  054A  1283               	bcf	3,5	;RP0=0, select bank0
  3204  054B  1303               	bcf	3,6	;RP1=0, select bank0
  3205  054C  0823               	movf	?___lmul+3,w
  3206  054D  00B4               	movwf	___aldiv@dividend+3
  3207  054E  0822               	movf	?___lmul+2,w
  3208  054F  00B3               	movwf	___aldiv@dividend+2
  3209  0550  0821               	movf	?___lmul+1,w
  3210  0551  00B2               	movwf	___aldiv@dividend+1
  3211  0552  0820               	movf	?___lmul,w
  3212  0553  00B1               	movwf	___aldiv@dividend
  3213  0554  158A  2763  118A   	fcall	___aldiv
  3214  0557  1283               	bcf	3,5	;RP0=0, select bank0
  3215  0558  1303               	bcf	3,6	;RP1=0, select bank0
  3216  0559  082E               	movf	?___aldiv+1,w
  3217  055A  00D1               	movwf	_Display_Volt+1
  3218  055B  082D               	movf	?___aldiv,w
  3219  055C  00D0               	movwf	_Display_Volt
  3220  055D                     l2809:
  3221                           
  3222                           ;Li_ion_main.c: 526:             Data2Array(Display_Array,Display_Volt);
  3223  055D  0851               	movf	_Display_Volt+1,w
  3224  055E  00A1               	movwf	Data2Array@data+1
  3225  055F  0850               	movf	_Display_Volt,w
  3226  0560  00A0               	movwf	Data2Array@data
  3227  0561  3067               	movlw	(low (_Display_Array| 0))& (0+255)
  3228  0562  158A  25C9  118A   	fcall	_Data2Array
  3229  0565                     l2811:
  3230                           
  3231                           ;Li_ion_main.c: 527:             Volt_Value=0;
  3232  0565  1283               	bcf	3,5	;RP0=0, select bank0
  3233  0566  1303               	bcf	3,6	;RP1=0, select bank0
  3234  0567  01C0               	clrf	FullCharge_Function@Volt_Value
  3235  0568  01C1               	clrf	FullCharge_Function@Volt_Value+1
  3236  0569                     l2813:
  3237                           
  3238                           ;Li_ion_main.c: 529:         if(Display_Volt < 126 && SolarFlag == 1)
  3239  0569  3000               	movlw	0
  3240  056A  0251               	subwf	_Display_Volt+1,w
  3241  056B  307E               	movlw	126
  3242  056C  1903               	skipnz
  3243  056D  0250               	subwf	_Display_Volt,w
  3244  056E  1803               	skipnc
  3245  056F  2D71               	goto	u2911
  3246  0570  2D72               	goto	u2910
  3247  0571                     u2911:
  3248  0571  2D79               	goto	l2819
  3249  0572                     u2910:
  3250  0572                     l2815:
  3251  0572  0358               	decf	_SolarFlag,w
  3252  0573  1D03               	btfss	3,2
  3253  0574  2D76               	goto	u2921
  3254  0575  2D77               	goto	u2920
  3255  0576                     u2921:
  3256  0576  2D79               	goto	l2819
  3257  0577                     u2920:
  3258  0577                     l2817:
  3259                           
  3260                           ;Li_ion_main.c: 530:         {;Li_ion_main.c: 531:             State = Current_Charge;
  3261  0577  01D7               	clrf	_State
  3262  0578  0AD7               	incf	_State,f
  3263  0579                     l2819:
  3264                           
  3265                           ;Li_ion_main.c: 533:         if(Display_Volt >=120)
  3266  0579  3000               	movlw	0
  3267  057A  0251               	subwf	_Display_Volt+1,w
  3268  057B  3078               	movlw	120
  3269  057C  1903               	skipnz
  3270  057D  0250               	subwf	_Display_Volt,w
  3271  057E  1C03               	skipc
  3272  057F  2D81               	goto	u2931
  3273  0580  2D82               	goto	u2930
  3274  0581                     u2931:
  3275  0581  2D87               	goto	l2823
  3276  0582                     u2930:
  3277  0582                     l2821:
  3278                           
  3279                           ;Li_ion_main.c: 534:         {;Li_ion_main.c: 535:             Display_Array[3] = 21;
  3280  0582  3015               	movlw	21
  3281  0583  00FF               	movwf	btemp+1
  3282  0584  087F               	movf	btemp+1,w
  3283  0585  00EA               	movwf	_Display_Array+3
  3284                           
  3285                           ;Li_ion_main.c: 536:         }
  3286  0586  2DB5               	goto	l2837
  3287  0587                     l2823:
  3288  0587  3000               	movlw	0
  3289  0588  0251               	subwf	_Display_Volt+1,w
  3290  0589  3072               	movlw	114
  3291  058A  1903               	skipnz
  3292  058B  0250               	subwf	_Display_Volt,w
  3293  058C  1C03               	skipc
  3294  058D  2D8F               	goto	u2941
  3295  058E  2D90               	goto	u2940
  3296  058F                     u2941:
  3297  058F  2D95               	goto	l2827
  3298  0590                     u2940:
  3299  0590                     l2825:
  3300                           
  3301                           ;Li_ion_main.c: 538:         {;Li_ion_main.c: 539:             Display_Array[3] = 20;
  3302  0590  3014               	movlw	20
  3303  0591  00FF               	movwf	btemp+1
  3304  0592  087F               	movf	btemp+1,w
  3305  0593  00EA               	movwf	_Display_Array+3
  3306                           
  3307                           ;Li_ion_main.c: 540:         }
  3308  0594  2DB5               	goto	l2837
  3309  0595                     l2827:
  3310  0595  3000               	movlw	0
  3311  0596  0251               	subwf	_Display_Volt+1,w
  3312  0597  306C               	movlw	108
  3313  0598  1903               	skipnz
  3314  0599  0250               	subwf	_Display_Volt,w
  3315  059A  1C03               	skipc
  3316  059B  2D9D               	goto	u2951
  3317  059C  2D9E               	goto	u2950
  3318  059D                     u2951:
  3319  059D  2DA3               	goto	l2831
  3320  059E                     u2950:
  3321  059E                     l2829:
  3322                           
  3323                           ;Li_ion_main.c: 542:         {;Li_ion_main.c: 543:             Display_Array[3] = 19;
  3324  059E  3013               	movlw	19
  3325  059F  00FF               	movwf	btemp+1
  3326  05A0  087F               	movf	btemp+1,w
  3327  05A1  00EA               	movwf	_Display_Array+3
  3328                           
  3329                           ;Li_ion_main.c: 544:         }
  3330  05A2  2DB5               	goto	l2837
  3331  05A3                     l2831:
  3332  05A3  3000               	movlw	0
  3333  05A4  0251               	subwf	_Display_Volt+1,w
  3334  05A5  3066               	movlw	102
  3335  05A6  1903               	skipnz
  3336  05A7  0250               	subwf	_Display_Volt,w
  3337  05A8  1C03               	skipc
  3338  05A9  2DAB               	goto	u2961
  3339  05AA  2DAC               	goto	u2960
  3340  05AB                     u2961:
  3341  05AB  2DB1               	goto	l2835
  3342  05AC                     u2960:
  3343  05AC                     l2833:
  3344                           
  3345                           ;Li_ion_main.c: 546:         {;Li_ion_main.c: 547:             Display_Array[3] = 18;
  3346  05AC  3012               	movlw	18
  3347  05AD  00FF               	movwf	btemp+1
  3348  05AE  087F               	movf	btemp+1,w
  3349  05AF  00EA               	movwf	_Display_Array+3
  3350                           
  3351                           ;Li_ion_main.c: 548:         }
  3352  05B0  2DB5               	goto	l2837
  3353  05B1                     l2835:
  3354                           
  3355                           ;Li_ion_main.c: 550:         {;Li_ion_main.c: 551:             Display_Array[3] = 23;
  3356  05B1  3017               	movlw	23
  3357  05B2  00FF               	movwf	btemp+1
  3358  05B3  087F               	movf	btemp+1,w
  3359  05B4  00EA               	movwf	_Display_Array+3
  3360  05B5                     l2837:
  3361                           
  3362                           ;Li_ion_main.c: 496:     while(State==Full_Charge)
  3363  05B5  3003               	movlw	3
  3364  05B6  0657               	xorwf	_State,w
  3365  05B7  1903               	btfsc	3,2
  3366  05B8  2DBA               	goto	u2971
  3367  05B9  2DBB               	goto	u2970
  3368  05BA                     u2971:
  3369  05BA  2CD3               	goto	l186
  3370  05BB                     u2970:
  3371  05BB                     l205:
  3372  05BB  0008               	return
  3373  05BC                     __end_of_FullCharge_Function:
  3374                           
  3375                           	psect	text8
  3376  0292                     __ptext8:	
  3377 ;; *************** function _CurrentCharge_Function *****************
  3378 ;; Defined at:
  3379 ;;		line 224 in file "Li_ion_main.c"
  3380 ;; Parameters:    Size  Location     Type
  3381 ;;		None
  3382 ;; Auto vars:     Size  Location     Type
  3383 ;;  i               1   37[BANK0 ] unsigned char 
  3384 ;;  A_To_V          4   30[BANK0 ] unsigned long 
  3385 ;;  i               1   36[BANK0 ] unsigned char 
  3386 ;;  Current_Valu    2   40[BANK0 ] unsigned int 
  3387 ;;  Volt_Value      2   38[BANK0 ] unsigned int 
  3388 ;;  C_Count         1   35[BANK0 ] unsigned char 
  3389 ;;  Total_Count     1   34[BANK0 ] unsigned char 
  3390 ;; Return value:  Size  Location     Type
  3391 ;;                  1    wreg      void 
  3392 ;; Registers used:
  3393 ;;		wreg, fsr0l, fsr0h, status,2, status,0, btemp+1, pclath, cstack
  3394 ;; Tracked objects:
  3395 ;;		On entry : 0/0
  3396 ;;		On exit  : 0/0
  3397 ;;		Unchanged: 0/0
  3398 ;; Data sizes:     COMMON   BANK0   BANK1   BANK2
  3399 ;;      Params:         0       0       0       0
  3400 ;;      Locals:         0      12       0       0
  3401 ;;      Temps:          0       2       0       0
  3402 ;;      Totals:         0      14       0       0
  3403 ;;Total ram usage:       14 bytes
  3404 ;; Hardware stack levels used:    1
  3405 ;; Hardware stack levels required when called:    4
  3406 ;; This function calls:
  3407 ;;		_Data2Array
  3408 ;;		___aldiv
  3409 ;;		___lldiv
  3410 ;;		___lmul
  3411 ;; This function is called by:
  3412 ;;		_main
  3413 ;; This function uses a non-reentrant model
  3414 ;;
  3415                           
  3416                           
  3417                           ;psect for function _CurrentCharge_Function
  3418  0292                     _CurrentCharge_Function:
  3419  0292                     l2501:	
  3420                           ;incstack = 0
  3421                           ; Regs used in _CurrentCharge_Function: [wreg-fsr0h+status,2+status,0+btemp+1+pclath+cst
      +                          ack]
  3422                           
  3423                           
  3424                           ;Li_ion_main.c: 226:     unsigned int Volt_Value=0;
  3425  0292  1283               	bcf	3,5	;RP0=0, select bank0
  3426  0293  1303               	bcf	3,6	;RP1=0, select bank0
  3427  0294  01C6               	clrf	CurrentCharge_Function@Volt_Value
  3428  0295  01C7               	clrf	CurrentCharge_Function@Volt_Value+1
  3429                           
  3430                           ;Li_ion_main.c: 227:     unsigned int Current_Value=0;
  3431  0296  01C8               	clrf	CurrentCharge_Function@Current_Value
  3432  0297  01C9               	clrf	CurrentCharge_Function@Current_Value+1
  3433                           
  3434                           ;Li_ion_main.c: 228:     char Total_Count=0;
  3435  0298  01C2               	clrf	CurrentCharge_Function@Total_Count
  3436                           
  3437                           ;Li_ion_main.c: 229:     char C_Count=0;
  3438  0299  01C3               	clrf	CurrentCharge_Function@C_Count
  3439                           
  3440                           ;Li_ion_main.c: 230:     PWM_Value=0;
  3441  029A  01D4               	clrf	_PWM_Value
  3442  029B  01D5               	clrf	_PWM_Value+1
  3443  029C                     l2503:
  3444                           
  3445                           ;Li_ion_main.c: 231:     CCPR1L = PWM_Value>>2;
  3446  029C  0855               	movf	_PWM_Value+1,w
  3447  029D  00BD               	movwf	??_CurrentCharge_Function+1
  3448  029E  0854               	movf	_PWM_Value,w
  3449  029F  00BC               	movwf	??_CurrentCharge_Function
  3450  02A0  1003               	clrc
  3451  02A1  0CBD               	rrf	??_CurrentCharge_Function+1,f
  3452  02A2  0CBC               	rrf	??_CurrentCharge_Function,f
  3453  02A3  1003               	clrc
  3454  02A4  0CBD               	rrf	??_CurrentCharge_Function+1,f
  3455  02A5  0CBC               	rrf	??_CurrentCharge_Function,f
  3456  02A6  083C               	movf	??_CurrentCharge_Function,w
  3457  02A7  0095               	movwf	21	;volatile
  3458  02A8                     l2505:
  3459                           
  3460                           ;Li_ion_main.c: 232:     CCP1CON= (PWM_Value &0x3)<<4 |
  3461  02A8  0854               	movf	_PWM_Value,w
  3462  02A9  3903               	andlw	3
  3463  02AA  00BC               	movwf	??_CurrentCharge_Function
  3464  02AB  3003               	movlw	3
  3465  02AC                     u2355:
  3466  02AC  1003               	clrc
  3467  02AD  0DBC               	rlf	??_CurrentCharge_Function,f
  3468  02AE  3EFF               	addlw	-1
  3469  02AF  1D03               	skipz
  3470  02B0  2AAC               	goto	u2355
  3471  02B1  1003               	clrc
  3472  02B2  0D3C               	rlf	??_CurrentCharge_Function,w
  3473  02B3  380C               	iorlw	12
  3474  02B4  0097               	movwf	23	;volatile
  3475                           
  3476                           ;Li_ion_main.c: 234:     while(State==Current_Charge)
  3477  02B5  2CA8               	goto	l2627
  3478  02B6                     l113:
  3479                           
  3480                           ;Li_ion_main.c: 235:     {;Li_ion_main.c: 236:         if(!(PORTC & (1<<0)))
  3481  02B6  1807               	btfsc	7,0	;volatile
  3482  02B7  2AB9               	goto	u2361
  3483  02B8  2ABA               	goto	u2360
  3484  02B9                     u2361:
  3485  02B9  2ABD               	goto	l2509
  3486  02BA                     u2360:
  3487  02BA                     l2507:
  3488                           
  3489                           ;Li_ion_main.c: 237:         {;Li_ion_main.c: 238:             SolarFlag=1;
  3490  02BA  01D8               	clrf	_SolarFlag
  3491  02BB  0AD8               	incf	_SolarFlag,f
  3492                           
  3493                           ;Li_ion_main.c: 239:         }
  3494  02BC  2ABF               	goto	l2511
  3495  02BD                     l2509:
  3496                           
  3497                           ;Li_ion_main.c: 241:         {;Li_ion_main.c: 242:             SolarFlag=0;
  3498  02BD  01D8               	clrf	_SolarFlag
  3499                           
  3500                           ;Li_ion_main.c: 243:             State=Wait_Charge;
  3501  02BE  01D7               	clrf	_State
  3502  02BF                     l2511:
  3503                           
  3504                           ;Li_ion_main.c: 245:         ADCON0 &= ~(0x0F<<2);
  3505  02BF  30C3               	movlw	195
  3506  02C0  00FF               	movwf	btemp+1
  3507  02C1  087F               	movf	btemp+1,w
  3508  02C2  059F               	andwf	31,f	;volatile
  3509  02C3                     l2513:
  3510                           
  3511                           ;Li_ion_main.c: 246:         ADCON0 |= (0<<2);
  3512  02C3  081F               	movf	31,w	;volatile
  3513  02C4                     l2515:
  3514                           
  3515                           ;Li_ion_main.c: 247:         AD_Value=0;
  3516  02C4  01D2               	clrf	_AD_Value
  3517  02C5  01D3               	clrf	_AD_Value+1
  3518  02C6                     l2517:
  3519                           
  3520                           ;Li_ion_main.c: 248:         for(char i=0;i<16;i++)
  3521  02C6  01C4               	clrf	CurrentCharge_Function@i
  3522  02C7                     l116:
  3523                           
  3524                           ;Li_ion_main.c: 249:         {;Li_ion_main.c: 250:             ADCON0 |= (1<<1);
  3525  02C7  149F               	bsf	31,1	;volatile
  3526  02C8                     l118:	
  3527                           ;Li_ion_main.c: 252:                 ;
  3528                           
  3529                           
  3530                           ;Li_ion_main.c: 251:             while(ADCON0 & (1<<1))
  3531  02C8  189F               	btfsc	31,1	;volatile
  3532  02C9  2ACB               	goto	u2371
  3533  02CA  2ACC               	goto	u2370
  3534  02CB                     u2371:
  3535  02CB  2AC8               	goto	l118
  3536  02CC                     u2370:
  3537  02CC                     l2523:
  3538                           
  3539                           ;Li_ion_main.c: 253:             AD_Value+=(int)ADRESH<<8 | ADRESL;
  3540  02CC  1683               	bsf	3,5	;RP0=1, select bank1
  3541  02CD  1303               	bcf	3,6	;RP1=0, select bank1
  3542  02CE  081E               	movf	30,w	;volatile
  3543  02CF  1283               	bcf	3,5	;RP0=0, select bank0
  3544  02D0  1303               	bcf	3,6	;RP1=0, select bank0
  3545  02D1  07D2               	addwf	_AD_Value,f
  3546  02D2  1803               	skipnc
  3547  02D3  0AD3               	incf	_AD_Value+1,f
  3548  02D4  081E               	movf	30,w	;volatile
  3549  02D5  07D3               	addwf	_AD_Value+1,f
  3550                           
  3551                           ;Li_ion_main.c: 254:             _delay((unsigned long)((1)*(4000000/4000.0)));
  3552  02D6  30C7               	movlw	199
  3553  02D7  1283               	bcf	3,5	;RP0=0, select bank0
  3554  02D8  1303               	bcf	3,6	;RP1=0, select bank0
  3555  02D9  00BC               	movwf	??_CurrentCharge_Function
  3556  02DA                     u3027:
  3557  02DA  2ADB               	nop2
  3558  02DB  0BBC               	decfsz	??_CurrentCharge_Function,f
  3559  02DC  2ADA               	goto	u3027
  3560  02DD  2ADE               	nop2
  3561  02DE  0000               	nop
  3562  02DF                     l2525:
  3563                           
  3564                           ;Li_ion_main.c: 255:         }
  3565  02DF  3001               	movlw	1
  3566  02E0  00FF               	movwf	btemp+1
  3567  02E1  087F               	movf	btemp+1,w
  3568  02E2  1283               	bcf	3,5	;RP0=0, select bank0
  3569  02E3  1303               	bcf	3,6	;RP1=0, select bank0
  3570  02E4  07C4               	addwf	CurrentCharge_Function@i,f
  3571  02E5                     l2527:
  3572  02E5  3010               	movlw	16
  3573  02E6  0244               	subwf	CurrentCharge_Function@i,w
  3574  02E7  1C03               	skipc
  3575  02E8  2AEA               	goto	u2381
  3576  02E9  2AEB               	goto	u2380
  3577  02EA                     u2381:
  3578  02EA  2AC7               	goto	l116
  3579  02EB                     u2380:
  3580  02EB                     l2529:
  3581                           
  3582                           ;Li_ion_main.c: 256:         Current_Value+=(AD_Value>>4);
  3583  02EB  0853               	movf	_AD_Value+1,w
  3584  02EC  00BD               	movwf	??_CurrentCharge_Function+1
  3585  02ED  0852               	movf	_AD_Value,w
  3586  02EE  00BC               	movwf	??_CurrentCharge_Function
  3587  02EF  3004               	movlw	4
  3588  02F0                     u2395:
  3589  02F0  1003               	clrc
  3590  02F1  0CBD               	rrf	??_CurrentCharge_Function+1,f
  3591  02F2  0CBC               	rrf	??_CurrentCharge_Function,f
  3592  02F3  3EFF               	addlw	-1
  3593  02F4  1D03               	skipz
  3594  02F5  2AF0               	goto	u2395
  3595  02F6  083C               	movf	??_CurrentCharge_Function,w
  3596  02F7  07C8               	addwf	CurrentCharge_Function@Current_Value,f
  3597  02F8  1803               	skipnc
  3598  02F9  0AC9               	incf	CurrentCharge_Function@Current_Value+1,f
  3599  02FA  083D               	movf	??_CurrentCharge_Function+1,w
  3600  02FB  07C9               	addwf	CurrentCharge_Function@Current_Value+1,f
  3601  02FC                     l2531:
  3602                           
  3603                           ;Li_ion_main.c: 257:         C_Count++;
  3604  02FC  3001               	movlw	1
  3605  02FD  00FF               	movwf	btemp+1
  3606  02FE  087F               	movf	btemp+1,w
  3607  02FF  07C3               	addwf	CurrentCharge_Function@C_Count,f
  3608  0300                     l2533:
  3609                           
  3610                           ;Li_ion_main.c: 258:         if(C_Count>=4)
  3611  0300  3004               	movlw	4
  3612  0301  0243               	subwf	CurrentCharge_Function@C_Count,w
  3613  0302  1C03               	skipc
  3614  0303  2B05               	goto	u2401
  3615  0304  2B06               	goto	u2400
  3616  0305                     u2401:
  3617  0305  2BC0               	goto	l2565
  3618  0306                     u2400:
  3619  0306                     l2535:
  3620                           
  3621                           ;Li_ion_main.c: 259:         {;Li_ion_main.c: 260:             C_Count=0;
  3622  0306  01C3               	clrf	CurrentCharge_Function@C_Count
  3623  0307                     l2537:
  3624                           
  3625                           ;Li_ion_main.c: 261:             Current_Value=Current_Value>>2;
  3626  0307  0849               	movf	CurrentCharge_Function@Current_Value+1,w
  3627  0308  00BD               	movwf	??_CurrentCharge_Function+1
  3628  0309  0848               	movf	CurrentCharge_Function@Current_Value,w
  3629  030A  00BC               	movwf	??_CurrentCharge_Function
  3630  030B  1003               	clrc
  3631  030C  0CBD               	rrf	??_CurrentCharge_Function+1,f
  3632  030D  0CBC               	rrf	??_CurrentCharge_Function,f
  3633  030E  1003               	clrc
  3634  030F  0CBD               	rrf	??_CurrentCharge_Function+1,f
  3635  0310  0CBC               	rrf	??_CurrentCharge_Function,f
  3636  0311  083C               	movf	??_CurrentCharge_Function,w
  3637  0312  00C8               	movwf	CurrentCharge_Function@Current_Value
  3638  0313  083D               	movf	??_CurrentCharge_Function+1,w
  3639  0314  00C9               	movwf	CurrentCharge_Function@Current_Value+1
  3640  0315                     l2539:
  3641                           
  3642                           ;Li_ion_main.c: 273:             unsigned long A_To_V = ((unsigned long)Current_Value * 
      +                          500) / 1023;
  3643  0315  3000               	movlw	0
  3644  0316  00B0               	movwf	___lldiv@divisor+3
  3645  0317  3000               	movlw	0
  3646  0318  00AF               	movwf	___lldiv@divisor+2
  3647  0319  3003               	movlw	3
  3648  031A  00AE               	movwf	___lldiv@divisor+1
  3649  031B  30FF               	movlw	255
  3650  031C  00AD               	movwf	___lldiv@divisor
  3651  031D  0848               	movf	CurrentCharge_Function@Current_Value,w
  3652  031E  00A0               	movwf	___lmul@multiplier
  3653  031F  0849               	movf	CurrentCharge_Function@Current_Value+1,w
  3654  0320  00A1               	movwf	___lmul@multiplier+1
  3655  0321  01A2               	clrf	___lmul@multiplier+2
  3656  0322  01A3               	clrf	___lmul@multiplier+3
  3657  0323  3000               	movlw	0
  3658  0324  00A7               	movwf	___lmul@multiplicand+3
  3659  0325  3000               	movlw	0
  3660  0326  00A6               	movwf	___lmul@multiplicand+2
  3661  0327  3001               	movlw	1
  3662  0328  00A5               	movwf	___lmul@multiplicand+1
  3663  0329  30F4               	movlw	244
  3664  032A  00A4               	movwf	___lmul@multiplicand
  3665  032B  118A  27A2  118A   	fcall	___lmul
  3666  032E  1283               	bcf	3,5	;RP0=0, select bank0
  3667  032F  1303               	bcf	3,6	;RP1=0, select bank0
  3668  0330  0823               	movf	?___lmul+3,w
  3669  0331  00B4               	movwf	___lldiv@dividend+3
  3670  0332  0822               	movf	?___lmul+2,w
  3671  0333  00B3               	movwf	___lldiv@dividend+2
  3672  0334  0821               	movf	?___lmul+1,w
  3673  0335  00B2               	movwf	___lldiv@dividend+1
  3674  0336  0820               	movf	?___lmul,w
  3675  0337  00B1               	movwf	___lldiv@dividend
  3676  0338  158A  266B  118A   	fcall	___lldiv
  3677  033B  1283               	bcf	3,5	;RP0=0, select bank0
  3678  033C  1303               	bcf	3,6	;RP1=0, select bank0
  3679  033D  0830               	movf	?___lldiv+3,w
  3680  033E  00C1               	movwf	CurrentCharge_Function@A_To_V+3
  3681  033F  082F               	movf	?___lldiv+2,w
  3682  0340  00C0               	movwf	CurrentCharge_Function@A_To_V+2
  3683  0341  082E               	movf	?___lldiv+1,w
  3684  0342  00BF               	movwf	CurrentCharge_Function@A_To_V+1
  3685  0343  082D               	movf	?___lldiv,w
  3686  0344  00BE               	movwf	CurrentCharge_Function@A_To_V
  3687  0345                     l2541:
  3688                           
  3689                           ;Li_ion_main.c: 274:             Display_Current = (A_To_V * 10) / 24;
  3690  0345  3000               	movlw	0
  3691  0346  00B0               	movwf	___lldiv@divisor+3
  3692  0347  3000               	movlw	0
  3693  0348  00AF               	movwf	___lldiv@divisor+2
  3694  0349  3000               	movlw	0
  3695  034A  00AE               	movwf	___lldiv@divisor+1
  3696  034B  3018               	movlw	24
  3697  034C  00AD               	movwf	___lldiv@divisor
  3698  034D  0841               	movf	CurrentCharge_Function@A_To_V+3,w
  3699  034E  00A3               	movwf	___lmul@multiplier+3
  3700  034F  0840               	movf	CurrentCharge_Function@A_To_V+2,w
  3701  0350  00A2               	movwf	___lmul@multiplier+2
  3702  0351  083F               	movf	CurrentCharge_Function@A_To_V+1,w
  3703  0352  00A1               	movwf	___lmul@multiplier+1
  3704  0353  083E               	movf	CurrentCharge_Function@A_To_V,w
  3705  0354  00A0               	movwf	___lmul@multiplier
  3706  0355  3000               	movlw	0
  3707  0356  00A7               	movwf	___lmul@multiplicand+3
  3708  0357  3000               	movlw	0
  3709  0358  00A6               	movwf	___lmul@multiplicand+2
  3710  0359  3000               	movlw	0
  3711  035A  00A5               	movwf	___lmul@multiplicand+1
  3712  035B  300A               	movlw	10
  3713  035C  00A4               	movwf	___lmul@multiplicand
  3714  035D  118A  27A2  118A   	fcall	___lmul
  3715  0360  1283               	bcf	3,5	;RP0=0, select bank0
  3716  0361  1303               	bcf	3,6	;RP1=0, select bank0
  3717  0362  0823               	movf	?___lmul+3,w
  3718  0363  00B4               	movwf	___lldiv@dividend+3
  3719  0364  0822               	movf	?___lmul+2,w
  3720  0365  00B3               	movwf	___lldiv@dividend+2
  3721  0366  0821               	movf	?___lmul+1,w
  3722  0367  00B2               	movwf	___lldiv@dividend+1
  3723  0368  0820               	movf	?___lmul,w
  3724  0369  00B1               	movwf	___lldiv@dividend
  3725  036A  158A  266B  118A   	fcall	___lldiv
  3726  036D  1283               	bcf	3,5	;RP0=0, select bank0
  3727  036E  1303               	bcf	3,6	;RP1=0, select bank0
  3728  036F  082E               	movf	?___lldiv+1,w
  3729  0370  00CF               	movwf	_Display_Current+1
  3730  0371  082D               	movf	?___lldiv,w
  3731  0372  00CE               	movwf	_Display_Current
  3732  0373                     l2543:
  3733                           
  3734                           ;Li_ion_main.c: 275:             Current_Value = 0;
  3735  0373  01C8               	clrf	CurrentCharge_Function@Current_Value
  3736  0374  01C9               	clrf	CurrentCharge_Function@Current_Value+1
  3737  0375                     l2545:
  3738                           
  3739                           ;Li_ion_main.c: 276:             if(Display_Current<20 && PWM_Value<900)
  3740  0375  3000               	movlw	0
  3741  0376  024F               	subwf	_Display_Current+1,w
  3742  0377  3014               	movlw	20
  3743  0378  1903               	skipnz
  3744  0379  024E               	subwf	_Display_Current,w
  3745  037A  1803               	skipnc
  3746  037B  2B7D               	goto	u2411
  3747  037C  2B7E               	goto	u2410
  3748  037D                     u2411:
  3749  037D  2BA7               	goto	l2555
  3750  037E                     u2410:
  3751  037E                     l2547:
  3752  037E  3003               	movlw	3
  3753  037F  0255               	subwf	_PWM_Value+1,w
  3754  0380  3084               	movlw	132
  3755  0381  1903               	skipnz
  3756  0382  0254               	subwf	_PWM_Value,w
  3757  0383  1803               	skipnc
  3758  0384  2B86               	goto	u2421
  3759  0385  2B87               	goto	u2420
  3760  0386                     u2421:
  3761  0386  2BA7               	goto	l2555
  3762  0387                     u2420:
  3763  0387                     l2549:
  3764                           
  3765                           ;Li_ion_main.c: 277:             {;Li_ion_main.c: 278:                 PWM_Value++;
  3766  0387  3001               	movlw	1
  3767  0388  07D4               	addwf	_PWM_Value,f
  3768  0389  1803               	skipnc
  3769  038A  0AD5               	incf	_PWM_Value+1,f
  3770  038B  3000               	movlw	0
  3771  038C  07D5               	addwf	_PWM_Value+1,f
  3772  038D                     l2551:
  3773                           
  3774                           ;Li_ion_main.c: 279:                 CCPR1L = PWM_Value>>2;
  3775  038D  0855               	movf	_PWM_Value+1,w
  3776  038E  00BD               	movwf	??_CurrentCharge_Function+1
  3777  038F  0854               	movf	_PWM_Value,w
  3778  0390  00BC               	movwf	??_CurrentCharge_Function
  3779  0391  1003               	clrc
  3780  0392  0CBD               	rrf	??_CurrentCharge_Function+1,f
  3781  0393  0CBC               	rrf	??_CurrentCharge_Function,f
  3782  0394  1003               	clrc
  3783  0395  0CBD               	rrf	??_CurrentCharge_Function+1,f
  3784  0396  0CBC               	rrf	??_CurrentCharge_Function,f
  3785  0397  083C               	movf	??_CurrentCharge_Function,w
  3786  0398  0095               	movwf	21	;volatile
  3787  0399                     l2553:
  3788                           
  3789                           ;Li_ion_main.c: 280:                 CCP1CON= (PWM_Value &0x3)<<4 |
  3790  0399  0854               	movf	_PWM_Value,w
  3791  039A  3903               	andlw	3
  3792  039B  00BC               	movwf	??_CurrentCharge_Function
  3793  039C  3003               	movlw	3
  3794  039D                     u2435:
  3795  039D  1003               	clrc
  3796  039E  0DBC               	rlf	??_CurrentCharge_Function,f
  3797  039F  3EFF               	addlw	-1
  3798  03A0  1D03               	skipz
  3799  03A1  2B9D               	goto	u2435
  3800  03A2  1003               	clrc
  3801  03A3  0D3C               	rlf	??_CurrentCharge_Function,w
  3802  03A4  380C               	iorlw	12
  3803  03A5  0097               	movwf	23	;volatile
  3804                           
  3805                           ;Li_ion_main.c: 282:             }
  3806  03A6  2BC0               	goto	l2565
  3807  03A7                     l2555:
  3808  03A7  3000               	movlw	0
  3809  03A8  024F               	subwf	_Display_Current+1,w
  3810  03A9  3015               	movlw	21
  3811  03AA  1903               	skipnz
  3812  03AB  024E               	subwf	_Display_Current,w
  3813  03AC  1C03               	skipc
  3814  03AD  2BAF               	goto	u2441
  3815  03AE  2BB0               	goto	u2440
  3816  03AF                     u2441:
  3817  03AF  2BC0               	goto	l123
  3818  03B0                     u2440:
  3819  03B0                     l2557:
  3820  03B0  3000               	movlw	0
  3821  03B1  0255               	subwf	_PWM_Value+1,w
  3822  03B2  3006               	movlw	6
  3823  03B3  1903               	skipnz
  3824  03B4  0254               	subwf	_PWM_Value,w
  3825  03B5  1C03               	skipc
  3826  03B6  2BB8               	goto	u2451
  3827  03B7  2BB9               	goto	u2450
  3828  03B8                     u2451:
  3829  03B8  2BC0               	goto	l123
  3830  03B9                     u2450:
  3831  03B9                     l2559:
  3832                           
  3833                           ;Li_ion_main.c: 284:             {;Li_ion_main.c: 285:                 PWM_Value--;
  3834  03B9  3001               	movlw	1
  3835  03BA  02D4               	subwf	_PWM_Value,f
  3836  03BB  3000               	movlw	0
  3837  03BC  1C03               	skipc
  3838  03BD  03D5               	decf	_PWM_Value+1,f
  3839  03BE  02D5               	subwf	_PWM_Value+1,f
  3840  03BF  2B8D               	goto	l2551
  3841  03C0                     l123:
  3842  03C0                     l2565:
  3843                           
  3844                           ;Li_ion_main.c: 296:         ADCON0 &= ~(0x0F<<2);
  3845  03C0  30C3               	movlw	195
  3846  03C1  00FF               	movwf	btemp+1
  3847  03C2  087F               	movf	btemp+1,w
  3848  03C3  059F               	andwf	31,f	;volatile
  3849  03C4                     l2567:
  3850                           
  3851                           ;Li_ion_main.c: 297:         ADCON0 |= (1<<2);
  3852  03C4  151F               	bsf	31,2	;volatile
  3853  03C5                     l2569:
  3854                           
  3855                           ;Li_ion_main.c: 298:         AD_Value=0;
  3856  03C5  01D2               	clrf	_AD_Value
  3857  03C6  01D3               	clrf	_AD_Value+1
  3858  03C7                     l2571:
  3859                           
  3860                           ;Li_ion_main.c: 299:         for(char i=0;i<16;i++)
  3861  03C7  01C5               	clrf	CurrentCharge_Function@i_133
  3862  03C8                     l126:
  3863                           
  3864                           ;Li_ion_main.c: 300:         {;Li_ion_main.c: 301:             ADCON0 |= (1<<1);
  3865  03C8  149F               	bsf	31,1	;volatile
  3866  03C9                     l128:	
  3867                           ;Li_ion_main.c: 303:                 ;
  3868                           
  3869                           
  3870                           ;Li_ion_main.c: 302:             while(ADCON0 & (1<<1))
  3871  03C9  189F               	btfsc	31,1	;volatile
  3872  03CA  2BCC               	goto	u2461
  3873  03CB  2BCD               	goto	u2460
  3874  03CC                     u2461:
  3875  03CC  2BC9               	goto	l128
  3876  03CD                     u2460:
  3877  03CD                     l2577:
  3878                           
  3879                           ;Li_ion_main.c: 304:             AD_Value+=(int)ADRESH<<8 | ADRESL;
  3880  03CD  1683               	bsf	3,5	;RP0=1, select bank1
  3881  03CE  1303               	bcf	3,6	;RP1=0, select bank1
  3882  03CF  081E               	movf	30,w	;volatile
  3883  03D0  1283               	bcf	3,5	;RP0=0, select bank0
  3884  03D1  1303               	bcf	3,6	;RP1=0, select bank0
  3885  03D2  07D2               	addwf	_AD_Value,f
  3886  03D3  1803               	skipnc
  3887  03D4  0AD3               	incf	_AD_Value+1,f
  3888  03D5  081E               	movf	30,w	;volatile
  3889  03D6  07D3               	addwf	_AD_Value+1,f
  3890                           
  3891                           ;Li_ion_main.c: 305:             _delay((unsigned long)((1)*(4000000/4000.0)));
  3892  03D7  30C7               	movlw	199
  3893  03D8  1283               	bcf	3,5	;RP0=0, select bank0
  3894  03D9  1303               	bcf	3,6	;RP1=0, select bank0
  3895  03DA  00BC               	movwf	??_CurrentCharge_Function
  3896  03DB                     u3037:
  3897  03DB  2BDC               	nop2
  3898  03DC  0BBC               	decfsz	??_CurrentCharge_Function,f
  3899  03DD  2BDB               	goto	u3037
  3900  03DE  2BDF               	nop2
  3901  03DF  0000               	nop
  3902  03E0                     l2579:
  3903                           
  3904                           ;Li_ion_main.c: 306:         }
  3905  03E0  3001               	movlw	1
  3906  03E1  00FF               	movwf	btemp+1
  3907  03E2  087F               	movf	btemp+1,w
  3908  03E3  1283               	bcf	3,5	;RP0=0, select bank0
  3909  03E4  1303               	bcf	3,6	;RP1=0, select bank0
  3910  03E5  07C5               	addwf	CurrentCharge_Function@i_133,f
  3911  03E6                     l2581:
  3912  03E6  3010               	movlw	16
  3913  03E7  0245               	subwf	CurrentCharge_Function@i_133,w
  3914  03E8  1C03               	skipc
  3915  03E9  2BEB               	goto	u2471
  3916  03EA  2BEC               	goto	u2470
  3917  03EB                     u2471:
  3918  03EB  2BC8               	goto	l126
  3919  03EC                     u2470:
  3920  03EC                     l2583:
  3921                           
  3922                           ;Li_ion_main.c: 307:         Volt_Value+=(AD_Value>>4);
  3923  03EC  0853               	movf	_AD_Value+1,w
  3924  03ED  00BD               	movwf	??_CurrentCharge_Function+1
  3925  03EE  0852               	movf	_AD_Value,w
  3926  03EF  00BC               	movwf	??_CurrentCharge_Function
  3927  03F0  3004               	movlw	4
  3928  03F1                     u2485:
  3929  03F1  1003               	clrc
  3930  03F2  0CBD               	rrf	??_CurrentCharge_Function+1,f
  3931  03F3  0CBC               	rrf	??_CurrentCharge_Function,f
  3932  03F4  3EFF               	addlw	-1
  3933  03F5  1D03               	skipz
  3934  03F6  2BF1               	goto	u2485
  3935  03F7  083C               	movf	??_CurrentCharge_Function,w
  3936  03F8  07C6               	addwf	CurrentCharge_Function@Volt_Value,f
  3937  03F9  1803               	skipnc
  3938  03FA  0AC7               	incf	CurrentCharge_Function@Volt_Value+1,f
  3939  03FB  083D               	movf	??_CurrentCharge_Function+1,w
  3940  03FC  07C7               	addwf	CurrentCharge_Function@Volt_Value+1,f
  3941  03FD                     l2585:
  3942                           
  3943                           ;Li_ion_main.c: 308:         Total_Count++;
  3944  03FD  3001               	movlw	1
  3945  03FE  00FF               	movwf	btemp+1
  3946  03FF  087F               	movf	btemp+1,w
  3947  0400  07C2               	addwf	CurrentCharge_Function@Total_Count,f
  3948  0401                     l2587:
  3949                           
  3950                           ;Li_ion_main.c: 309:         if(Total_Count>=4)
  3951  0401  3004               	movlw	4
  3952  0402  0242               	subwf	CurrentCharge_Function@Total_Count,w
  3953  0403  1C03               	skipc
  3954  0404  2C06               	goto	u2491
  3955  0405  2C07               	goto	u2490
  3956  0406                     u2491:
  3957  0406  2C51               	goto	l2601
  3958  0407                     u2490:
  3959  0407                     l2589:
  3960                           
  3961                           ;Li_ion_main.c: 310:         {;Li_ion_main.c: 311:             Total_Count=0;
  3962  0407  01C2               	clrf	CurrentCharge_Function@Total_Count
  3963  0408                     l2591:
  3964                           
  3965                           ;Li_ion_main.c: 312:             Volt_Value=Volt_Value>>2;
  3966  0408  0847               	movf	CurrentCharge_Function@Volt_Value+1,w
  3967  0409  00BD               	movwf	??_CurrentCharge_Function+1
  3968  040A  0846               	movf	CurrentCharge_Function@Volt_Value,w
  3969  040B  00BC               	movwf	??_CurrentCharge_Function
  3970  040C  1003               	clrc
  3971  040D  0CBD               	rrf	??_CurrentCharge_Function+1,f
  3972  040E  0CBC               	rrf	??_CurrentCharge_Function,f
  3973  040F  1003               	clrc
  3974  0410  0CBD               	rrf	??_CurrentCharge_Function+1,f
  3975  0411  0CBC               	rrf	??_CurrentCharge_Function,f
  3976  0412  083C               	movf	??_CurrentCharge_Function,w
  3977  0413  00C6               	movwf	CurrentCharge_Function@Volt_Value
  3978  0414  083D               	movf	??_CurrentCharge_Function+1,w
  3979  0415  00C7               	movwf	CurrentCharge_Function@Volt_Value+1
  3980  0416                     l2593:
  3981                           
  3982                           ;Li_ion_main.c: 313:             Display_Volt=((long)140*Volt_Value)/512;
  3983  0416  3000               	movlw	0
  3984  0417  00B0               	movwf	___aldiv@divisor+3
  3985  0418  3000               	movlw	0
  3986  0419  00AF               	movwf	___aldiv@divisor+2
  3987  041A  3002               	movlw	2
  3988  041B  00AE               	movwf	___aldiv@divisor+1
  3989  041C  3000               	movlw	0
  3990  041D  00AD               	movwf	___aldiv@divisor
  3991  041E  0846               	movf	CurrentCharge_Function@Volt_Value,w
  3992  041F  00A0               	movwf	___lmul@multiplier
  3993  0420  0847               	movf	CurrentCharge_Function@Volt_Value+1,w
  3994  0421  00A1               	movwf	___lmul@multiplier+1
  3995  0422  01A2               	clrf	___lmul@multiplier+2
  3996  0423  01A3               	clrf	___lmul@multiplier+3
  3997  0424  3000               	movlw	0
  3998  0425  00A7               	movwf	___lmul@multiplicand+3
  3999  0426  3000               	movlw	0
  4000  0427  00A6               	movwf	___lmul@multiplicand+2
  4001  0428  3000               	movlw	0
  4002  0429  00A5               	movwf	___lmul@multiplicand+1
  4003  042A  308C               	movlw	140
  4004  042B  00A4               	movwf	___lmul@multiplicand
  4005  042C  118A  27A2  118A   	fcall	___lmul
  4006  042F  1283               	bcf	3,5	;RP0=0, select bank0
  4007  0430  1303               	bcf	3,6	;RP1=0, select bank0
  4008  0431  0823               	movf	?___lmul+3,w
  4009  0432  00B4               	movwf	___aldiv@dividend+3
  4010  0433  0822               	movf	?___lmul+2,w
  4011  0434  00B3               	movwf	___aldiv@dividend+2
  4012  0435  0821               	movf	?___lmul+1,w
  4013  0436  00B2               	movwf	___aldiv@dividend+1
  4014  0437  0820               	movf	?___lmul,w
  4015  0438  00B1               	movwf	___aldiv@dividend
  4016  0439  158A  2763  118A   	fcall	___aldiv
  4017  043C  1283               	bcf	3,5	;RP0=0, select bank0
  4018  043D  1303               	bcf	3,6	;RP1=0, select bank0
  4019  043E  082E               	movf	?___aldiv+1,w
  4020  043F  00D1               	movwf	_Display_Volt+1
  4021  0440  082D               	movf	?___aldiv,w
  4022  0441  00D0               	movwf	_Display_Volt
  4023  0442                     l2595:
  4024                           
  4025                           ;Li_ion_main.c: 314:             if(Display_Volt>=126)
  4026  0442  3000               	movlw	0
  4027  0443  0251               	subwf	_Display_Volt+1,w
  4028  0444  307E               	movlw	126
  4029  0445  1903               	skipnz
  4030  0446  0250               	subwf	_Display_Volt,w
  4031  0447  1C03               	skipc
  4032  0448  2C4A               	goto	u2501
  4033  0449  2C4B               	goto	u2500
  4034  044A                     u2501:
  4035  044A  2C4F               	goto	l2599
  4036  044B                     u2500:
  4037  044B                     l2597:
  4038                           
  4039                           ;Li_ion_main.c: 315:             {;Li_ion_main.c: 316:                 State=Volt_Charge
      +                          ;
  4040  044B  3002               	movlw	2
  4041  044C  00FF               	movwf	btemp+1
  4042  044D  087F               	movf	btemp+1,w
  4043  044E  00D7               	movwf	_State
  4044  044F                     l2599:
  4045                           
  4046                           ;Li_ion_main.c: 319:             Volt_Value=0;
  4047  044F  01C6               	clrf	CurrentCharge_Function@Volt_Value
  4048  0450  01C7               	clrf	CurrentCharge_Function@Volt_Value+1
  4049  0451                     l2601:
  4050                           
  4051                           ;Li_ion_main.c: 321:         if(Display_Volt >=120)
  4052  0451  3000               	movlw	0
  4053  0452  0251               	subwf	_Display_Volt+1,w
  4054  0453  3078               	movlw	120
  4055  0454  1903               	skipnz
  4056  0455  0250               	subwf	_Display_Volt,w
  4057  0456  1C03               	skipc
  4058  0457  2C59               	goto	u2511
  4059  0458  2C5A               	goto	u2510
  4060  0459                     u2511:
  4061  0459  2C5F               	goto	l2605
  4062  045A                     u2510:
  4063  045A                     l2603:
  4064                           
  4065                           ;Li_ion_main.c: 322:         {;Li_ion_main.c: 323:             Display_Array[3] = 21;
  4066  045A  3015               	movlw	21
  4067  045B  00FF               	movwf	btemp+1
  4068  045C  087F               	movf	btemp+1,w
  4069  045D  00EA               	movwf	_Display_Array+3
  4070                           
  4071                           ;Li_ion_main.c: 324:         }
  4072  045E  2C8D               	goto	l2619
  4073  045F                     l2605:
  4074  045F  3000               	movlw	0
  4075  0460  0251               	subwf	_Display_Volt+1,w
  4076  0461  3072               	movlw	114
  4077  0462  1903               	skipnz
  4078  0463  0250               	subwf	_Display_Volt,w
  4079  0464  1C03               	skipc
  4080  0465  2C67               	goto	u2521
  4081  0466  2C68               	goto	u2520
  4082  0467                     u2521:
  4083  0467  2C6D               	goto	l2609
  4084  0468                     u2520:
  4085  0468                     l2607:
  4086                           
  4087                           ;Li_ion_main.c: 326:         {;Li_ion_main.c: 327:             Display_Array[3] = 20;
  4088  0468  3014               	movlw	20
  4089  0469  00FF               	movwf	btemp+1
  4090  046A  087F               	movf	btemp+1,w
  4091  046B  00EA               	movwf	_Display_Array+3
  4092                           
  4093                           ;Li_ion_main.c: 328:         }
  4094  046C  2C8D               	goto	l2619
  4095  046D                     l2609:
  4096  046D  3000               	movlw	0
  4097  046E  0251               	subwf	_Display_Volt+1,w
  4098  046F  306C               	movlw	108
  4099  0470  1903               	skipnz
  4100  0471  0250               	subwf	_Display_Volt,w
  4101  0472  1C03               	skipc
  4102  0473  2C75               	goto	u2531
  4103  0474  2C76               	goto	u2530
  4104  0475                     u2531:
  4105  0475  2C7B               	goto	l2613
  4106  0476                     u2530:
  4107  0476                     l2611:
  4108                           
  4109                           ;Li_ion_main.c: 330:         {;Li_ion_main.c: 331:             Display_Array[3] = 19;
  4110  0476  3013               	movlw	19
  4111  0477  00FF               	movwf	btemp+1
  4112  0478  087F               	movf	btemp+1,w
  4113  0479  00EA               	movwf	_Display_Array+3
  4114                           
  4115                           ;Li_ion_main.c: 332:         }
  4116  047A  2C8D               	goto	l2619
  4117  047B                     l2613:
  4118  047B  3000               	movlw	0
  4119  047C  0251               	subwf	_Display_Volt+1,w
  4120  047D  3066               	movlw	102
  4121  047E  1903               	skipnz
  4122  047F  0250               	subwf	_Display_Volt,w
  4123  0480  1C03               	skipc
  4124  0481  2C83               	goto	u2541
  4125  0482  2C84               	goto	u2540
  4126  0483                     u2541:
  4127  0483  2C89               	goto	l2617
  4128  0484                     u2540:
  4129  0484                     l2615:
  4130                           
  4131                           ;Li_ion_main.c: 334:         {;Li_ion_main.c: 335:             Display_Array[3] = 18;
  4132  0484  3012               	movlw	18
  4133  0485  00FF               	movwf	btemp+1
  4134  0486  087F               	movf	btemp+1,w
  4135  0487  00EA               	movwf	_Display_Array+3
  4136                           
  4137                           ;Li_ion_main.c: 336:         }
  4138  0488  2C8D               	goto	l2619
  4139  0489                     l2617:
  4140                           
  4141                           ;Li_ion_main.c: 338:         {;Li_ion_main.c: 339:             Display_Array[3] = 23;
  4142  0489  3017               	movlw	23
  4143  048A  00FF               	movwf	btemp+1
  4144  048B  087F               	movf	btemp+1,w
  4145  048C  00EA               	movwf	_Display_Array+3
  4146  048D                     l2619:
  4147                           
  4148                           ;Li_ion_main.c: 341:         if(Display_Change==0)
  4149  048D  0856               	movf	_Display_Change,w
  4150  048E  1D03               	btfss	3,2
  4151  048F  2C91               	goto	u2551
  4152  0490  2C92               	goto	u2550
  4153  0491                     u2551:
  4154  0491  2C9B               	goto	l2623
  4155  0492                     u2550:
  4156  0492                     l2621:
  4157                           
  4158                           ;Li_ion_main.c: 342:         {;Li_ion_main.c: 343:             Data2Array(Display_Array,
      +                          Display_Current);
  4159  0492  084F               	movf	_Display_Current+1,w
  4160  0493  00A1               	movwf	Data2Array@data+1
  4161  0494  084E               	movf	_Display_Current,w
  4162  0495  00A0               	movwf	Data2Array@data
  4163  0496  3067               	movlw	(low (_Display_Array| 0))& (0+255)
  4164  0497  158A  25C9  118A   	fcall	_Data2Array
  4165                           
  4166                           ;Li_ion_main.c: 344:         }
  4167  049A  2CA8               	goto	l2627
  4168  049B                     l2623:
  4169  049B  0356               	decf	_Display_Change,w
  4170  049C  1D03               	btfss	3,2
  4171  049D  2C9F               	goto	u2561
  4172  049E  2CA0               	goto	u2560
  4173  049F                     u2561:
  4174  049F  2CA8               	goto	l2627
  4175  04A0                     u2560:
  4176  04A0                     l2625:
  4177                           
  4178                           ;Li_ion_main.c: 346:         {;Li_ion_main.c: 347:             Data2Array(Display_Array,
      +                          Display_Volt);
  4179  04A0  0851               	movf	_Display_Volt+1,w
  4180  04A1  00A1               	movwf	Data2Array@data+1
  4181  04A2  0850               	movf	_Display_Volt,w
  4182  04A3  00A0               	movwf	Data2Array@data
  4183  04A4  3067               	movlw	(low (_Display_Array| 0))& (0+255)
  4184  04A5  158A  25C9  118A   	fcall	_Data2Array
  4185  04A8                     l2627:
  4186                           
  4187                           ;Li_ion_main.c: 234:     while(State==Current_Charge)
  4188  04A8  1283               	bcf	3,5	;RP0=0, select bank0
  4189  04A9  1303               	bcf	3,6	;RP1=0, select bank0
  4190  04AA  0357               	decf	_State,w
  4191  04AB  1903               	btfsc	3,2
  4192  04AC  2CAE               	goto	u2571
  4193  04AD  2CAF               	goto	u2570
  4194  04AE                     u2571:
  4195  04AE  2AB6               	goto	l113
  4196  04AF                     u2570:
  4197  04AF                     l145:
  4198  04AF  0008               	return
  4199  04B0                     __end_of_CurrentCharge_Function:
  4200                           
  4201                           	psect	text9
  4202  07A2                     __ptext9:	
  4203 ;; *************** function ___lmul *****************
  4204 ;; Defined at:
  4205 ;;		line 15 in file "C:\Program Files\Microchip\xc8\v2.20\pic\sources\c90\common\Umul32.c"
  4206 ;; Parameters:    Size  Location     Type
  4207 ;;  multiplier      4    0[BANK0 ] unsigned long 
  4208 ;;  multiplicand    4    4[BANK0 ] unsigned long 
  4209 ;; Auto vars:     Size  Location     Type
  4210 ;;  product         4    9[BANK0 ] unsigned long 
  4211 ;; Return value:  Size  Location     Type
  4212 ;;                  4    0[BANK0 ] unsigned long 
  4213 ;; Registers used:
  4214 ;;		wreg, status,2, status,0
  4215 ;; Tracked objects:
  4216 ;;		On entry : 0/0
  4217 ;;		On exit  : 0/0
  4218 ;;		Unchanged: 0/0
  4219 ;; Data sizes:     COMMON   BANK0   BANK1   BANK2
  4220 ;;      Params:         0       8       0       0
  4221 ;;      Locals:         0       4       0       0
  4222 ;;      Temps:          0       1       0       0
  4223 ;;      Totals:         0      13       0       0
  4224 ;;Total ram usage:       13 bytes
  4225 ;; Hardware stack levels used:    1
  4226 ;; Hardware stack levels required when called:    3
  4227 ;; This function calls:
  4228 ;;		Nothing
  4229 ;; This function is called by:
  4230 ;;		_WaitCharge_Function
  4231 ;;		_CurrentCharge_Function
  4232 ;;		_VoltCharge_Function
  4233 ;;		_FullCharge_Function
  4234 ;;		_PWM_Init
  4235 ;;		_PWM_SetFrequency
  4236 ;; This function uses a non-reentrant model
  4237 ;;
  4238                           
  4239                           
  4240                           ;psect for function ___lmul
  4241  07A2                     ___lmul:
  4242  07A2                     l1681:	
  4243                           ;incstack = 0
  4244                           ; Regs used in ___lmul: [wreg+status,2+status,0]
  4245                           
  4246  07A2  3000               	movlw	0
  4247  07A3  1283               	bcf	3,5	;RP0=0, select bank0
  4248  07A4  1303               	bcf	3,6	;RP1=0, select bank0
  4249  07A5  00AC               	movwf	___lmul@product+3
  4250  07A6  3000               	movlw	0
  4251  07A7  00AB               	movwf	___lmul@product+2
  4252  07A8  3000               	movlw	0
  4253  07A9  00AA               	movwf	___lmul@product+1
  4254  07AA  3000               	movlw	0
  4255  07AB  00A9               	movwf	___lmul@product
  4256  07AC                     l1683:
  4257  07AC  1C20               	btfss	___lmul@multiplier,0
  4258  07AD  2FAF               	goto	u1151
  4259  07AE  2FB0               	goto	u1150
  4260  07AF                     u1151:
  4261  07AF  2FC7               	goto	l1687
  4262  07B0                     u1150:
  4263  07B0                     l1685:
  4264  07B0  0824               	movf	___lmul@multiplicand,w
  4265  07B1  07A9               	addwf	___lmul@product,f
  4266  07B2  0825               	movf	___lmul@multiplicand+1,w
  4267  07B3  1103               	clrz
  4268  07B4  1803               	skipnc
  4269  07B5  3E01               	addlw	1
  4270  07B6  1903               	skipnz
  4271  07B7  2FB9               	goto	u1161
  4272  07B8  07AA               	addwf	___lmul@product+1,f
  4273  07B9                     u1161:
  4274  07B9  0826               	movf	___lmul@multiplicand+2,w
  4275  07BA  1103               	clrz
  4276  07BB  1803               	skipnc
  4277  07BC  3E01               	addlw	1
  4278  07BD  1903               	skipnz
  4279  07BE  2FC0               	goto	u1162
  4280  07BF  07AB               	addwf	___lmul@product+2,f
  4281  07C0                     u1162:
  4282  07C0  0827               	movf	___lmul@multiplicand+3,w
  4283  07C1  1103               	clrz
  4284  07C2  1803               	skipnc
  4285  07C3  3E01               	addlw	1
  4286  07C4  1903               	skipnz
  4287  07C5  2FC7               	goto	u1163
  4288  07C6  07AC               	addwf	___lmul@product+3,f
  4289  07C7                     u1163:
  4290  07C7                     l1687:
  4291  07C7  3001               	movlw	1
  4292  07C8  00A8               	movwf	??___lmul
  4293  07C9                     u1175:
  4294  07C9  1003               	clrc
  4295  07CA  0DA4               	rlf	___lmul@multiplicand,f
  4296  07CB  0DA5               	rlf	___lmul@multiplicand+1,f
  4297  07CC  0DA6               	rlf	___lmul@multiplicand+2,f
  4298  07CD  0DA7               	rlf	___lmul@multiplicand+3,f
  4299  07CE  0BA8               	decfsz	??___lmul,f
  4300  07CF  2FC9               	goto	u1175
  4301  07D0                     l1689:
  4302  07D0  3001               	movlw	1
  4303  07D1                     u1185:
  4304  07D1  1003               	clrc
  4305  07D2  0CA3               	rrf	___lmul@multiplier+3,f
  4306  07D3  0CA2               	rrf	___lmul@multiplier+2,f
  4307  07D4  0CA1               	rrf	___lmul@multiplier+1,f
  4308  07D5  0CA0               	rrf	___lmul@multiplier,f
  4309  07D6  3EFF               	addlw	-1
  4310  07D7  1D03               	skipz
  4311  07D8  2FD1               	goto	u1185
  4312  07D9  0823               	movf	___lmul@multiplier+3,w
  4313  07DA  0422               	iorwf	___lmul@multiplier+2,w
  4314  07DB  0421               	iorwf	___lmul@multiplier+1,w
  4315  07DC  0420               	iorwf	___lmul@multiplier,w
  4316  07DD  1D03               	skipz
  4317  07DE  2FE0               	goto	u1191
  4318  07DF  2FE1               	goto	u1190
  4319  07E0                     u1191:
  4320  07E0  2FAC               	goto	l1683
  4321  07E1                     u1190:
  4322  07E1                     l1691:
  4323  07E1  082C               	movf	___lmul@product+3,w
  4324  07E2  00A3               	movwf	?___lmul+3
  4325  07E3  082B               	movf	___lmul@product+2,w
  4326  07E4  00A2               	movwf	?___lmul+2
  4327  07E5  082A               	movf	___lmul@product+1,w
  4328  07E6  00A1               	movwf	?___lmul+1
  4329  07E7  0829               	movf	___lmul@product,w
  4330  07E8  00A0               	movwf	?___lmul
  4331  07E9                     l413:
  4332  07E9  0008               	return
  4333  07EA                     __end_of___lmul:
  4334                           
  4335                           	psect	text10
  4336  0E6B                     __ptext10:	
  4337 ;; *************** function ___lldiv *****************
  4338 ;; Defined at:
  4339 ;;		line 5 in file "C:\Program Files\Microchip\xc8\v2.20\pic\sources\c90\common\__lldiv.c"
  4340 ;; Parameters:    Size  Location     Type
  4341 ;;  divisor         4   13[BANK0 ] unsigned long 
  4342 ;;  dividend        4   17[BANK0 ] unsigned long 
  4343 ;; Auto vars:     Size  Location     Type
  4344 ;;  quotient        4   22[BANK0 ] unsigned long 
  4345 ;;  counter         1   26[BANK0 ] unsigned char 
  4346 ;; Return value:  Size  Location     Type
  4347 ;;                  4   13[BANK0 ] unsigned long 
  4348 ;; Registers used:
  4349 ;;		wreg, status,2, status,0, btemp+1
  4350 ;; Tracked objects:
  4351 ;;		On entry : 0/0
  4352 ;;		On exit  : 0/0
  4353 ;;		Unchanged: 0/0
  4354 ;; Data sizes:     COMMON   BANK0   BANK1   BANK2
  4355 ;;      Params:         0       8       0       0
  4356 ;;      Locals:         0       5       0       0
  4357 ;;      Temps:          0       1       0       0
  4358 ;;      Totals:         0      14       0       0
  4359 ;;Total ram usage:       14 bytes
  4360 ;; Hardware stack levels used:    1
  4361 ;; Hardware stack levels required when called:    3
  4362 ;; This function calls:
  4363 ;;		Nothing
  4364 ;; This function is called by:
  4365 ;;		_CurrentCharge_Function
  4366 ;;		_VoltCharge_Function
  4367 ;;		_PWM_Init
  4368 ;;		_PWM_SetFrequency
  4369 ;; This function uses a non-reentrant model
  4370 ;;
  4371                           
  4372                           
  4373                           ;psect for function ___lldiv
  4374  0E6B                     ___lldiv:
  4375  0E6B                     l1695:	
  4376                           ;incstack = 0
  4377                           ; Regs used in ___lldiv: [wreg+status,2+status,0+btemp+1]
  4378                           
  4379  0E6B  3000               	movlw	0
  4380  0E6C  1283               	bcf	3,5	;RP0=0, select bank0
  4381  0E6D  1303               	bcf	3,6	;RP1=0, select bank0
  4382  0E6E  00B9               	movwf	___lldiv@quotient+3
  4383  0E6F  3000               	movlw	0
  4384  0E70  00B8               	movwf	___lldiv@quotient+2
  4385  0E71  3000               	movlw	0
  4386  0E72  00B7               	movwf	___lldiv@quotient+1
  4387  0E73  3000               	movlw	0
  4388  0E74  00B6               	movwf	___lldiv@quotient
  4389  0E75  0830               	movf	___lldiv@divisor+3,w
  4390  0E76  042F               	iorwf	___lldiv@divisor+2,w
  4391  0E77  042E               	iorwf	___lldiv@divisor+1,w
  4392  0E78  042D               	iorwf	___lldiv@divisor,w
  4393  0E79  1903               	skipnz
  4394  0E7A  2E7C               	goto	u1201
  4395  0E7B  2E7D               	goto	u1200
  4396  0E7C                     u1201:
  4397  0E7C  2ECA               	goto	l1717
  4398  0E7D                     u1200:
  4399  0E7D                     l1697:
  4400  0E7D  01BA               	clrf	___lldiv@counter
  4401  0E7E  0ABA               	incf	___lldiv@counter,f
  4402  0E7F  2E8D               	goto	l1703
  4403  0E80                     l1699:
  4404  0E80  3001               	movlw	1
  4405  0E81  00B5               	movwf	??___lldiv
  4406  0E82                     u1215:
  4407  0E82  1003               	clrc
  4408  0E83  0DAD               	rlf	___lldiv@divisor,f
  4409  0E84  0DAE               	rlf	___lldiv@divisor+1,f
  4410  0E85  0DAF               	rlf	___lldiv@divisor+2,f
  4411  0E86  0DB0               	rlf	___lldiv@divisor+3,f
  4412  0E87  0BB5               	decfsz	??___lldiv,f
  4413  0E88  2E82               	goto	u1215
  4414  0E89                     l1701:
  4415  0E89  3001               	movlw	1
  4416  0E8A  00FF               	movwf	btemp+1
  4417  0E8B  087F               	movf	btemp+1,w
  4418  0E8C  07BA               	addwf	___lldiv@counter,f
  4419  0E8D                     l1703:
  4420  0E8D  1FB0               	btfss	___lldiv@divisor+3,7
  4421  0E8E  2E90               	goto	u1221
  4422  0E8F  2E91               	goto	u1220
  4423  0E90                     u1221:
  4424  0E90  2E80               	goto	l1699
  4425  0E91                     u1220:
  4426  0E91                     l1705:
  4427  0E91  3001               	movlw	1
  4428  0E92  00B5               	movwf	??___lldiv
  4429  0E93                     u1235:
  4430  0E93  1003               	clrc
  4431  0E94  0DB6               	rlf	___lldiv@quotient,f
  4432  0E95  0DB7               	rlf	___lldiv@quotient+1,f
  4433  0E96  0DB8               	rlf	___lldiv@quotient+2,f
  4434  0E97  0DB9               	rlf	___lldiv@quotient+3,f
  4435  0E98  0BB5               	decfsz	??___lldiv,f
  4436  0E99  2E93               	goto	u1235
  4437  0E9A                     l1707:
  4438  0E9A  0830               	movf	___lldiv@divisor+3,w
  4439  0E9B  0234               	subwf	___lldiv@dividend+3,w
  4440  0E9C  1D03               	skipz
  4441  0E9D  2EA8               	goto	u1245
  4442  0E9E  082F               	movf	___lldiv@divisor+2,w
  4443  0E9F  0233               	subwf	___lldiv@dividend+2,w
  4444  0EA0  1D03               	skipz
  4445  0EA1  2EA8               	goto	u1245
  4446  0EA2  082E               	movf	___lldiv@divisor+1,w
  4447  0EA3  0232               	subwf	___lldiv@dividend+1,w
  4448  0EA4  1D03               	skipz
  4449  0EA5  2EA8               	goto	u1245
  4450  0EA6  082D               	movf	___lldiv@divisor,w
  4451  0EA7  0231               	subwf	___lldiv@dividend,w
  4452  0EA8                     u1245:
  4453  0EA8  1C03               	skipc
  4454  0EA9  2EAB               	goto	u1241
  4455  0EAA  2EAC               	goto	u1240
  4456  0EAB                     u1241:
  4457  0EAB  2EBB               	goto	l1713
  4458  0EAC                     u1240:
  4459  0EAC                     l1709:
  4460  0EAC  082D               	movf	___lldiv@divisor,w
  4461  0EAD  02B1               	subwf	___lldiv@dividend,f
  4462  0EAE  082E               	movf	___lldiv@divisor+1,w
  4463  0EAF  1C03               	skipc
  4464  0EB0  0F2E               	incfsz	___lldiv@divisor+1,w
  4465  0EB1  02B2               	subwf	___lldiv@dividend+1,f
  4466  0EB2  082F               	movf	___lldiv@divisor+2,w
  4467  0EB3  1C03               	skipc
  4468  0EB4  0F2F               	incfsz	___lldiv@divisor+2,w
  4469  0EB5  02B3               	subwf	___lldiv@dividend+2,f
  4470  0EB6  0830               	movf	___lldiv@divisor+3,w
  4471  0EB7  1C03               	skipc
  4472  0EB8  0F30               	incfsz	___lldiv@divisor+3,w
  4473  0EB9  02B4               	subwf	___lldiv@dividend+3,f
  4474  0EBA                     l1711:
  4475  0EBA  1436               	bsf	___lldiv@quotient,0
  4476  0EBB                     l1713:
  4477  0EBB  3001               	movlw	1
  4478  0EBC                     u1255:
  4479  0EBC  1003               	clrc
  4480  0EBD  0CB0               	rrf	___lldiv@divisor+3,f
  4481  0EBE  0CAF               	rrf	___lldiv@divisor+2,f
  4482  0EBF  0CAE               	rrf	___lldiv@divisor+1,f
  4483  0EC0  0CAD               	rrf	___lldiv@divisor,f
  4484  0EC1  3EFF               	addlw	-1
  4485  0EC2  1D03               	skipz
  4486  0EC3  2EBC               	goto	u1255
  4487  0EC4                     l1715:
  4488  0EC4  3001               	movlw	1
  4489  0EC5  02BA               	subwf	___lldiv@counter,f
  4490  0EC6  1D03               	btfss	3,2
  4491  0EC7  2EC9               	goto	u1261
  4492  0EC8  2ECA               	goto	u1260
  4493  0EC9                     u1261:
  4494  0EC9  2E91               	goto	l1705
  4495  0ECA                     u1260:
  4496  0ECA                     l1717:
  4497  0ECA  0839               	movf	___lldiv@quotient+3,w
  4498  0ECB  00B0               	movwf	?___lldiv+3
  4499  0ECC  0838               	movf	___lldiv@quotient+2,w
  4500  0ECD  00AF               	movwf	?___lldiv+2
  4501  0ECE  0837               	movf	___lldiv@quotient+1,w
  4502  0ECF  00AE               	movwf	?___lldiv+1
  4503  0ED0  0836               	movf	___lldiv@quotient,w
  4504  0ED1  00AD               	movwf	?___lldiv
  4505  0ED2                     l435:
  4506  0ED2  0008               	return
  4507  0ED3                     __end_of___lldiv:
  4508                           
  4509                           	psect	text11
  4510  0F63                     __ptext11:	
  4511 ;; *************** function ___aldiv *****************
  4512 ;; Defined at:
  4513 ;;		line 5 in file "C:\Program Files\Microchip\xc8\v2.20\pic\sources\c90\common\aldiv.c"
  4514 ;; Parameters:    Size  Location     Type
  4515 ;;  divisor         4   13[BANK0 ] long 
  4516 ;;  dividend        4   17[BANK0 ] long 
  4517 ;; Auto vars:     Size  Location     Type
  4518 ;;  quotient        4   24[BANK0 ] long 
  4519 ;;  sign            1   23[BANK0 ] unsigned char 
  4520 ;;  counter         1   22[BANK0 ] unsigned char 
  4521 ;; Return value:  Size  Location     Type
  4522 ;;                  4   13[BANK0 ] long 
  4523 ;; Registers used:
  4524 ;;		wreg, status,2, status,0, btemp+1
  4525 ;; Tracked objects:
  4526 ;;		On entry : 0/0
  4527 ;;		On exit  : 0/0
  4528 ;;		Unchanged: 0/0
  4529 ;; Data sizes:     COMMON   BANK0   BANK1   BANK2
  4530 ;;      Params:         0       8       0       0
  4531 ;;      Locals:         0       6       0       0
  4532 ;;      Temps:          0       1       0       0
  4533 ;;      Totals:         0      15       0       0
  4534 ;;Total ram usage:       15 bytes
  4535 ;; Hardware stack levels used:    1
  4536 ;; Hardware stack levels required when called:    3
  4537 ;; This function calls:
  4538 ;;		Nothing
  4539 ;; This function is called by:
  4540 ;;		_WaitCharge_Function
  4541 ;;		_CurrentCharge_Function
  4542 ;;		_VoltCharge_Function
  4543 ;;		_FullCharge_Function
  4544 ;;		_PWM_Init
  4545 ;;		_PWM_SetFrequency
  4546 ;; This function uses a non-reentrant model
  4547 ;;
  4548                           
  4549                           
  4550                           ;psect for function ___aldiv
  4551  0F63                     ___aldiv:
  4552  0F63                     l1721:	
  4553                           ;incstack = 0
  4554                           ; Regs used in ___aldiv: [wreg+status,2+status,0+btemp+1]
  4555                           
  4556  0F63  1283               	bcf	3,5	;RP0=0, select bank0
  4557  0F64  1303               	bcf	3,6	;RP1=0, select bank0
  4558  0F65  01B7               	clrf	___aldiv@sign
  4559  0F66                     l1723:
  4560  0F66  1FB0               	btfss	___aldiv@divisor+3,7
  4561  0F67  2F69               	goto	u1271
  4562  0F68  2F6A               	goto	u1270
  4563  0F69                     u1271:
  4564  0F69  2F77               	goto	l464
  4565  0F6A                     u1270:
  4566  0F6A                     l1725:
  4567  0F6A  09AD               	comf	___aldiv@divisor,f
  4568  0F6B  09AE               	comf	___aldiv@divisor+1,f
  4569  0F6C  09AF               	comf	___aldiv@divisor+2,f
  4570  0F6D  09B0               	comf	___aldiv@divisor+3,f
  4571  0F6E  0AAD               	incf	___aldiv@divisor,f
  4572  0F6F  1903               	skipnz
  4573  0F70  0AAE               	incf	___aldiv@divisor+1,f
  4574  0F71  1903               	skipnz
  4575  0F72  0AAF               	incf	___aldiv@divisor+2,f
  4576  0F73  1903               	skipnz
  4577  0F74  0AB0               	incf	___aldiv@divisor+3,f
  4578  0F75  01B7               	clrf	___aldiv@sign
  4579  0F76  0AB7               	incf	___aldiv@sign,f
  4580  0F77                     l464:
  4581  0F77  1FB4               	btfss	___aldiv@dividend+3,7
  4582  0F78  2F7A               	goto	u1281
  4583  0F79  2F7B               	goto	u1280
  4584  0F7A                     u1281:
  4585  0F7A  2F8A               	goto	l1731
  4586  0F7B                     u1280:
  4587  0F7B                     l1727:
  4588  0F7B  09B1               	comf	___aldiv@dividend,f
  4589  0F7C  09B2               	comf	___aldiv@dividend+1,f
  4590  0F7D  09B3               	comf	___aldiv@dividend+2,f
  4591  0F7E  09B4               	comf	___aldiv@dividend+3,f
  4592  0F7F  0AB1               	incf	___aldiv@dividend,f
  4593  0F80  1903               	skipnz
  4594  0F81  0AB2               	incf	___aldiv@dividend+1,f
  4595  0F82  1903               	skipnz
  4596  0F83  0AB3               	incf	___aldiv@dividend+2,f
  4597  0F84  1903               	skipnz
  4598  0F85  0AB4               	incf	___aldiv@dividend+3,f
  4599  0F86                     l1729:
  4600  0F86  3001               	movlw	1
  4601  0F87  00FF               	movwf	btemp+1
  4602  0F88  087F               	movf	btemp+1,w
  4603  0F89  06B7               	xorwf	___aldiv@sign,f
  4604  0F8A                     l1731:
  4605  0F8A  3000               	movlw	0
  4606  0F8B  00BB               	movwf	___aldiv@quotient+3
  4607  0F8C  3000               	movlw	0
  4608  0F8D  00BA               	movwf	___aldiv@quotient+2
  4609  0F8E  3000               	movlw	0
  4610  0F8F  00B9               	movwf	___aldiv@quotient+1
  4611  0F90  3000               	movlw	0
  4612  0F91  00B8               	movwf	___aldiv@quotient
  4613  0F92                     l1733:
  4614  0F92  0830               	movf	___aldiv@divisor+3,w
  4615  0F93  042F               	iorwf	___aldiv@divisor+2,w
  4616  0F94  042E               	iorwf	___aldiv@divisor+1,w
  4617  0F95  042D               	iorwf	___aldiv@divisor,w
  4618  0F96  1903               	skipnz
  4619  0F97  2F99               	goto	u1291
  4620  0F98  2F9A               	goto	u1290
  4621  0F99                     u1291:
  4622  0F99  2FE7               	goto	l1755
  4623  0F9A                     u1290:
  4624  0F9A                     l1735:
  4625  0F9A  01B6               	clrf	___aldiv@counter
  4626  0F9B  0AB6               	incf	___aldiv@counter,f
  4627  0F9C  2FAA               	goto	l1741
  4628  0F9D                     l1737:
  4629  0F9D  3001               	movlw	1
  4630  0F9E  00B5               	movwf	??___aldiv
  4631  0F9F                     u1305:
  4632  0F9F  1003               	clrc
  4633  0FA0  0DAD               	rlf	___aldiv@divisor,f
  4634  0FA1  0DAE               	rlf	___aldiv@divisor+1,f
  4635  0FA2  0DAF               	rlf	___aldiv@divisor+2,f
  4636  0FA3  0DB0               	rlf	___aldiv@divisor+3,f
  4637  0FA4  0BB5               	decfsz	??___aldiv,f
  4638  0FA5  2F9F               	goto	u1305
  4639  0FA6                     l1739:
  4640  0FA6  3001               	movlw	1
  4641  0FA7  00FF               	movwf	btemp+1
  4642  0FA8  087F               	movf	btemp+1,w
  4643  0FA9  07B6               	addwf	___aldiv@counter,f
  4644  0FAA                     l1741:
  4645  0FAA  1FB0               	btfss	___aldiv@divisor+3,7
  4646  0FAB  2FAD               	goto	u1311
  4647  0FAC  2FAE               	goto	u1310
  4648  0FAD                     u1311:
  4649  0FAD  2F9D               	goto	l1737
  4650  0FAE                     u1310:
  4651  0FAE                     l1743:
  4652  0FAE  3001               	movlw	1
  4653  0FAF  00B5               	movwf	??___aldiv
  4654  0FB0                     u1325:
  4655  0FB0  1003               	clrc
  4656  0FB1  0DB8               	rlf	___aldiv@quotient,f
  4657  0FB2  0DB9               	rlf	___aldiv@quotient+1,f
  4658  0FB3  0DBA               	rlf	___aldiv@quotient+2,f
  4659  0FB4  0DBB               	rlf	___aldiv@quotient+3,f
  4660  0FB5  0BB5               	decfsz	??___aldiv,f
  4661  0FB6  2FB0               	goto	u1325
  4662  0FB7                     l1745:
  4663  0FB7  0830               	movf	___aldiv@divisor+3,w
  4664  0FB8  0234               	subwf	___aldiv@dividend+3,w
  4665  0FB9  1D03               	skipz
  4666  0FBA  2FC5               	goto	u1335
  4667  0FBB  082F               	movf	___aldiv@divisor+2,w
  4668  0FBC  0233               	subwf	___aldiv@dividend+2,w
  4669  0FBD  1D03               	skipz
  4670  0FBE  2FC5               	goto	u1335
  4671  0FBF  082E               	movf	___aldiv@divisor+1,w
  4672  0FC0  0232               	subwf	___aldiv@dividend+1,w
  4673  0FC1  1D03               	skipz
  4674  0FC2  2FC5               	goto	u1335
  4675  0FC3  082D               	movf	___aldiv@divisor,w
  4676  0FC4  0231               	subwf	___aldiv@dividend,w
  4677  0FC5                     u1335:
  4678  0FC5  1C03               	skipc
  4679  0FC6  2FC8               	goto	u1331
  4680  0FC7  2FC9               	goto	u1330
  4681  0FC8                     u1331:
  4682  0FC8  2FD8               	goto	l1751
  4683  0FC9                     u1330:
  4684  0FC9                     l1747:
  4685  0FC9  082D               	movf	___aldiv@divisor,w
  4686  0FCA  02B1               	subwf	___aldiv@dividend,f
  4687  0FCB  082E               	movf	___aldiv@divisor+1,w
  4688  0FCC  1C03               	skipc
  4689  0FCD  0F2E               	incfsz	___aldiv@divisor+1,w
  4690  0FCE  02B2               	subwf	___aldiv@dividend+1,f
  4691  0FCF  082F               	movf	___aldiv@divisor+2,w
  4692  0FD0  1C03               	skipc
  4693  0FD1  0F2F               	incfsz	___aldiv@divisor+2,w
  4694  0FD2  02B3               	subwf	___aldiv@dividend+2,f
  4695  0FD3  0830               	movf	___aldiv@divisor+3,w
  4696  0FD4  1C03               	skipc
  4697  0FD5  0F30               	incfsz	___aldiv@divisor+3,w
  4698  0FD6  02B4               	subwf	___aldiv@dividend+3,f
  4699  0FD7                     l1749:
  4700  0FD7  1438               	bsf	___aldiv@quotient,0
  4701  0FD8                     l1751:
  4702  0FD8  3001               	movlw	1
  4703  0FD9                     u1345:
  4704  0FD9  1003               	clrc
  4705  0FDA  0CB0               	rrf	___aldiv@divisor+3,f
  4706  0FDB  0CAF               	rrf	___aldiv@divisor+2,f
  4707  0FDC  0CAE               	rrf	___aldiv@divisor+1,f
  4708  0FDD  0CAD               	rrf	___aldiv@divisor,f
  4709  0FDE  3EFF               	addlw	-1
  4710  0FDF  1D03               	skipz
  4711  0FE0  2FD9               	goto	u1345
  4712  0FE1                     l1753:
  4713  0FE1  3001               	movlw	1
  4714  0FE2  02B6               	subwf	___aldiv@counter,f
  4715  0FE3  1D03               	btfss	3,2
  4716  0FE4  2FE6               	goto	u1351
  4717  0FE5  2FE7               	goto	u1350
  4718  0FE6                     u1351:
  4719  0FE6  2FAE               	goto	l1743
  4720  0FE7                     u1350:
  4721  0FE7                     l1755:
  4722  0FE7  0837               	movf	___aldiv@sign,w
  4723  0FE8  1903               	btfsc	3,2
  4724  0FE9  2FEB               	goto	u1361
  4725  0FEA  2FEC               	goto	u1360
  4726  0FEB                     u1361:
  4727  0FEB  2FF7               	goto	l1759
  4728  0FEC                     u1360:
  4729  0FEC                     l1757:
  4730  0FEC  09B8               	comf	___aldiv@quotient,f
  4731  0FED  09B9               	comf	___aldiv@quotient+1,f
  4732  0FEE  09BA               	comf	___aldiv@quotient+2,f
  4733  0FEF  09BB               	comf	___aldiv@quotient+3,f
  4734  0FF0  0AB8               	incf	___aldiv@quotient,f
  4735  0FF1  1903               	skipnz
  4736  0FF2  0AB9               	incf	___aldiv@quotient+1,f
  4737  0FF3  1903               	skipnz
  4738  0FF4  0ABA               	incf	___aldiv@quotient+2,f
  4739  0FF5  1903               	skipnz
  4740  0FF6  0ABB               	incf	___aldiv@quotient+3,f
  4741  0FF7                     l1759:
  4742  0FF7  083B               	movf	___aldiv@quotient+3,w
  4743  0FF8  00B0               	movwf	?___aldiv+3
  4744  0FF9  083A               	movf	___aldiv@quotient+2,w
  4745  0FFA  00AF               	movwf	?___aldiv+2
  4746  0FFB  0839               	movf	___aldiv@quotient+1,w
  4747  0FFC  00AE               	movwf	?___aldiv+1
  4748  0FFD  0838               	movf	___aldiv@quotient,w
  4749  0FFE  00AD               	movwf	?___aldiv
  4750  0FFF                     l474:
  4751  0FFF  0008               	return
  4752  1000                     __end_of___aldiv:
  4753                           
  4754                           	psect	text12
  4755  0DC9                     __ptext12:	
  4756 ;; *************** function _Data2Array *****************
  4757 ;; Defined at:
  4758 ;;		line 627 in file "Li_ion_main.c"
  4759 ;; Parameters:    Size  Location     Type
  4760 ;;  d_Array         1    wreg     PTR unsigned char 
  4761 ;;		 -> Display_Array(4), 
  4762 ;;  data            2    0[BANK0 ] unsigned int 
  4763 ;; Auto vars:     Size  Location     Type
  4764 ;;  d_Array         1    2[BANK0 ] PTR unsigned char 
  4765 ;;		 -> Display_Array(4), 
  4766 ;; Return value:  Size  Location     Type
  4767 ;;                  1    wreg      void 
  4768 ;; Registers used:
  4769 ;;		wreg, fsr0l, fsr0h, status,2, status,0, btemp+1
  4770 ;; Tracked objects:
  4771 ;;		On entry : 0/0
  4772 ;;		On exit  : 0/0
  4773 ;;		Unchanged: 0/0
  4774 ;; Data sizes:     COMMON   BANK0   BANK1   BANK2
  4775 ;;      Params:         0       2       0       0
  4776 ;;      Locals:         0       1       0       0
  4777 ;;      Temps:          0       0       0       0
  4778 ;;      Totals:         0       3       0       0
  4779 ;;Total ram usage:        3 bytes
  4780 ;; Hardware stack levels used:    1
  4781 ;; Hardware stack levels required when called:    3
  4782 ;; This function calls:
  4783 ;;		Nothing
  4784 ;; This function is called by:
  4785 ;;		_WaitCharge_Function
  4786 ;;		_CurrentCharge_Function
  4787 ;;		_VoltCharge_Function
  4788 ;;		_FullCharge_Function
  4789 ;; This function uses a non-reentrant model
  4790 ;;
  4791                           
  4792                           
  4793                           ;psect for function _Data2Array
  4794  0DC9                     _Data2Array:
  4795                           
  4796                           ;incstack = 0
  4797                           ; Regs used in _Data2Array: [wreg-fsr0h+status,2+status,0+btemp+1]
  4798                           ;Data2Array@d_Array stored from wreg
  4799  0DC9  1283               	bcf	3,5	;RP0=0, select bank0
  4800  0DCA  1303               	bcf	3,6	;RP1=0, select bank0
  4801  0DCB  00A2               	movwf	Data2Array@d_Array
  4802  0DCC                     l2409:
  4803                           
  4804                           ;Li_ion_main.c: 627: void Data2Array(char* d_Array,unsigned int data);Li_ion_main.c: 628
      +                          : {;Li_ion_main.c: 629:     d_Array[0]=0;
  4805  0DCC  0822               	movf	Data2Array@d_Array,w
  4806  0DCD  0084               	movwf	4
  4807  0DCE  1383               	bcf	3,7	;select IRP bank0
  4808  0DCF  0180               	clrf	0
  4809                           
  4810                           ;Li_ion_main.c: 630:     while(data >= 100)
  4811  0DD0  2DDD               	goto	l2415
  4812  0DD1                     l2411:
  4813                           
  4814                           ;Li_ion_main.c: 631:     {;Li_ion_main.c: 632:         data-=100;
  4815  0DD1  3064               	movlw	100
  4816  0DD2  02A0               	subwf	Data2Array@data,f
  4817  0DD3  3000               	movlw	0
  4818  0DD4  1C03               	skipc
  4819  0DD5  03A1               	decf	Data2Array@data+1,f
  4820  0DD6  02A1               	subwf	Data2Array@data+1,f
  4821  0DD7                     l2413:
  4822                           
  4823                           ;Li_ion_main.c: 633:         d_Array[0]++;
  4824  0DD7  3001               	movlw	1
  4825  0DD8  00FF               	movwf	btemp+1
  4826  0DD9  0822               	movf	Data2Array@d_Array,w
  4827  0DDA  0084               	movwf	4
  4828  0DDB  087F               	movf	btemp+1,w
  4829  0DDC  0780               	addwf	0,f
  4830  0DDD                     l2415:
  4831                           
  4832                           ;Li_ion_main.c: 630:     while(data >= 100)
  4833  0DDD  3000               	movlw	0
  4834  0DDE  0221               	subwf	Data2Array@data+1,w
  4835  0DDF  3064               	movlw	100
  4836  0DE0  1903               	skipnz
  4837  0DE1  0220               	subwf	Data2Array@data,w
  4838  0DE2  1803               	skipnc
  4839  0DE3  2DE5               	goto	u2221
  4840  0DE4  2DE6               	goto	u2220
  4841  0DE5                     u2221:
  4842  0DE5  2DD1               	goto	l2411
  4843  0DE6                     u2220:
  4844  0DE6                     l2417:
  4845                           
  4846                           ;Li_ion_main.c: 636:     d_Array[1]=0;
  4847  0DE6  0A22               	incf	Data2Array@d_Array,w
  4848  0DE7  0084               	movwf	4
  4849  0DE8  0180               	clrf	0
  4850                           
  4851                           ;Li_ion_main.c: 637:     while(data >= 10)
  4852  0DE9  2DF6               	goto	l2423
  4853  0DEA                     l2419:
  4854                           
  4855                           ;Li_ion_main.c: 638:     {;Li_ion_main.c: 639:         data-=10;
  4856  0DEA  300A               	movlw	10
  4857  0DEB  02A0               	subwf	Data2Array@data,f
  4858  0DEC  3000               	movlw	0
  4859  0DED  1C03               	skipc
  4860  0DEE  03A1               	decf	Data2Array@data+1,f
  4861  0DEF  02A1               	subwf	Data2Array@data+1,f
  4862  0DF0                     l2421:
  4863                           
  4864                           ;Li_ion_main.c: 640:         d_Array[1]++;
  4865  0DF0  3001               	movlw	1
  4866  0DF1  00FF               	movwf	btemp+1
  4867  0DF2  0A22               	incf	Data2Array@d_Array,w
  4868  0DF3  0084               	movwf	4
  4869  0DF4  087F               	movf	btemp+1,w
  4870  0DF5  0780               	addwf	0,f
  4871  0DF6                     l2423:
  4872                           
  4873                           ;Li_ion_main.c: 637:     while(data >= 10)
  4874  0DF6  3000               	movlw	0
  4875  0DF7  0221               	subwf	Data2Array@data+1,w
  4876  0DF8  300A               	movlw	10
  4877  0DF9  1903               	skipnz
  4878  0DFA  0220               	subwf	Data2Array@data,w
  4879  0DFB  1803               	skipnc
  4880  0DFC  2DFE               	goto	u2231
  4881  0DFD  2DFF               	goto	u2230
  4882  0DFE                     u2231:
  4883  0DFE  2DEA               	goto	l2419
  4884  0DFF                     u2230:
  4885  0DFF                     l2425:
  4886                           
  4887                           ;Li_ion_main.c: 644:     d_Array[2]=data;
  4888  0DFF  0820               	movf	Data2Array@data,w
  4889  0E00  00FF               	movwf	btemp+1
  4890  0E01  0822               	movf	Data2Array@d_Array,w
  4891  0E02  3E02               	addlw	2
  4892  0E03  0084               	movwf	4
  4893  0E04  087F               	movf	btemp+1,w
  4894  0E05  0080               	movwf	0
  4895  0E06                     l239:
  4896  0E06  0008               	return
  4897  0E07                     __end_of_Data2Array:
  4898                           
  4899                           	psect	text13
  4900  0D95                     __ptext13:	
  4901 ;; *************** function _ISR *****************
  4902 ;; Defined at:
  4903 ;;		line 557 in file "Li_ion_main.c"
  4904 ;; Parameters:    Size  Location     Type
  4905 ;;		None
  4906 ;; Auto vars:     Size  Location     Type
  4907 ;;		None
  4908 ;; Return value:  Size  Location     Type
  4909 ;;                  1    wreg      void 
  4910 ;; Registers used:
  4911 ;;		wreg, fsr0l, fsr0h, status,2, status,0, btemp+1, pclath, cstack
  4912 ;; Tracked objects:
  4913 ;;		On entry : 0/0
  4914 ;;		On exit  : 0/0
  4915 ;;		Unchanged: 0/0
  4916 ;; Data sizes:     COMMON   BANK0   BANK1   BANK2
  4917 ;;      Params:         0       0       0       0
  4918 ;;      Locals:         0       0       0       0
  4919 ;;      Temps:          4       0       0       0
  4920 ;;      Totals:         4       0       0       0
  4921 ;;Total ram usage:        4 bytes
  4922 ;; Hardware stack levels used:    1
  4923 ;; Hardware stack levels required when called:    2
  4924 ;; This function calls:
  4925 ;;		_Display_Segment
  4926 ;; This function is called by:
  4927 ;;		Interrupt level 1
  4928 ;; This function uses a non-reentrant model
  4929 ;;
  4930                           
  4931                           
  4932                           ;psect for function _ISR
  4933  0D95                     _ISR:
  4934  0D95                     i1l2315:
  4935                           
  4936                           ;Li_ion_main.c: 559:     static int Display_Count=0;;Li_ion_main.c: 560:     if(INTCON &
      +                           (1<<2))
  4937  0D95  1D0B               	btfss	11,2	;volatile
  4938  0D96  2D98               	goto	u218_21
  4939  0D97  2D99               	goto	u218_20
  4940  0D98                     u218_21:
  4941  0D98  2DBC               	goto	i1l214
  4942  0D99                     u218_20:
  4943  0D99                     i1l2317:
  4944                           
  4945                           ;Li_ion_main.c: 561:     {;Li_ion_main.c: 562:         INTCON &= ~(1<<2);
  4946  0D99  30FB               	movlw	251
  4947  0D9A  00FF               	movwf	btemp+1
  4948  0D9B  087F               	movf	btemp+1,w
  4949  0D9C  058B               	andwf	11,f	;volatile
  4950  0D9D                     i1l2319:
  4951                           
  4952                           ;Li_ion_main.c: 563:         Display_Segment(Display_Array);
  4953  0D9D  3067               	movlw	(low (_Display_Array| 0))& (0+255)
  4954  0D9E  158A  26D3  158A   	fcall	_Display_Segment
  4955  0DA1                     i1l2321:
  4956                           
  4957                           ;Li_ion_main.c: 564:         Display_Count++;
  4958  0DA1  3001               	movlw	1
  4959  0DA2  07FB               	addwf	ISR@Display_Count,f
  4960  0DA3  1803               	skipnc
  4961  0DA4  0AFC               	incf	ISR@Display_Count+1,f
  4962  0DA5  3000               	movlw	0
  4963  0DA6  07FC               	addwf	ISR@Display_Count+1,f
  4964  0DA7                     i1l2323:
  4965                           
  4966                           ;Li_ion_main.c: 565:         if(Display_Count>=1000)
  4967  0DA7  087C               	movf	ISR@Display_Count+1,w
  4968  0DA8  3A80               	xorlw	128
  4969  0DA9  00FF               	movwf	btemp+1
  4970  0DAA  3083               	movlw	131
  4971  0DAB  027F               	subwf	btemp+1,w
  4972  0DAC  1D03               	skipz
  4973  0DAD  2DB0               	goto	u219_25
  4974  0DAE  30E8               	movlw	232
  4975  0DAF  027B               	subwf	ISR@Display_Count,w
  4976  0DB0                     u219_25:
  4977  0DB0  1C03               	skipc
  4978  0DB1  2DB3               	goto	u219_21
  4979  0DB2  2DB4               	goto	u219_20
  4980  0DB3                     u219_21:
  4981  0DB3  2DBC               	goto	i1l214
  4982  0DB4                     u219_20:
  4983  0DB4                     i1l2325:
  4984                           
  4985                           ;Li_ion_main.c: 566:         {;Li_ion_main.c: 567:             Display_Count=0;
  4986  0DB4  01FB               	clrf	ISR@Display_Count
  4987  0DB5  01FC               	clrf	ISR@Display_Count+1
  4988  0DB6                     i1l2327:
  4989                           
  4990                           ;Li_ion_main.c: 568:             Display_Change^=1;
  4991  0DB6  3001               	movlw	1
  4992  0DB7  00FF               	movwf	btemp+1
  4993  0DB8  087F               	movf	btemp+1,w
  4994  0DB9  1283               	bcf	3,5	;RP0=0, select bank0
  4995  0DBA  1303               	bcf	3,6	;RP1=0, select bank0
  4996  0DBB  06D6               	xorwf	_Display_Change,f
  4997  0DBC                     i1l214:
  4998  0DBC  0876               	movf	??_ISR+3,w
  4999  0DBD  1283               	bcf	3,5	;RP0=0, select bank0
  5000  0DBE  1303               	bcf	3,6	;RP1=0, select bank0
  5001  0DBF  00FF               	movwf	btemp+1
  5002  0DC0  0875               	movf	??_ISR+2,w
  5003  0DC1  008A               	movwf	10
  5004  0DC2  0874               	movf	??_ISR+1,w
  5005  0DC3  0084               	movwf	4
  5006  0DC4  0E73               	swapf	??_ISR^(0+4294967168),w
  5007  0DC5  0083               	movwf	3
  5008  0DC6  0EFE               	swapf	btemp,f
  5009  0DC7  0E7E               	swapf	btemp,w
  5010  0DC8  0009               	retfie
  5011  0DC9                     __end_of_ISR:
  5012                           
  5013                           	psect	intentry
  5014  0004                     __pintentry:	
  5015                           ;incstack = 0
  5016                           ; Regs used in _ISR: [wreg-fsr0h+status,2+status,0+btemp+1+pclath+cstack]
  5017                           
  5018  0004                     interrupt_function:
  5019  007E                     saved_w	set	btemp
  5020  0004  00FE               	movwf	btemp
  5021  0005  0E03               	swapf	3,w
  5022  0006  00F3               	movwf	??_ISR
  5023  0007  0804               	movf	4,w
  5024  0008  00F4               	movwf	??_ISR+1
  5025  0009  080A               	movf	10,w
  5026  000A  00F5               	movwf	??_ISR+2
  5027  000B  1283               	bcf	3,5	;RP0=0, select bank0
  5028  000C  1303               	bcf	3,6	;RP1=0, select bank0
  5029  000D  087F               	movf	btemp+1,w
  5030  000E  00F6               	movwf	??_ISR+3
  5031  000F  158A  2D95         	ljmp	_ISR
  5032                           
  5033                           	psect	text14
  5034  0ED3                     __ptext14:	
  5035 ;; *************** function _Display_Segment *****************
  5036 ;; Defined at:
  5037 ;;		line 574 in file "Li_ion_main.c"
  5038 ;; Parameters:    Size  Location     Type
  5039 ;;  Display_Arra    1    wreg     PTR unsigned char 
  5040 ;;		 -> Display_Array(4), 
  5041 ;; Auto vars:     Size  Location     Type
  5042 ;;  Display_Arra    1    2[COMMON] PTR unsigned char 
  5043 ;;		 -> Display_Array(4), 
  5044 ;; Return value:  Size  Location     Type
  5045 ;;                  1    wreg      void 
  5046 ;; Registers used:
  5047 ;;		wreg, fsr0l, fsr0h, status,2, status,0, btemp+1, pclath
  5048 ;; Tracked objects:
  5049 ;;		On entry : 0/0
  5050 ;;		On exit  : 0/0
  5051 ;;		Unchanged: 0/0
  5052 ;; Data sizes:     COMMON   BANK0   BANK1   BANK2
  5053 ;;      Params:         0       0       0       0
  5054 ;;      Locals:         1       0       0       0
  5055 ;;      Temps:          2       0       0       0
  5056 ;;      Totals:         3       0       0       0
  5057 ;;Total ram usage:        3 bytes
  5058 ;; Hardware stack levels used:    2
  5059 ;; This function calls:
  5060 ;;		Nothing
  5061 ;; This function is called by:
  5062 ;;		_ISR
  5063 ;; This function uses a non-reentrant model
  5064 ;;
  5065                           
  5066                           
  5067                           ;psect for function _Display_Segment
  5068  0ED3                     _Display_Segment:
  5069                           
  5070                           ;incstack = 0
  5071                           ; Regs used in _Display_Segment: [wreg-fsr0h+status,2+status,0+btemp+1+pclath]
  5072                           ;Display_Segment@Display_Array stored from wreg
  5073  0ED3  00F2               	movwf	Display_Segment@Display_Array
  5074  0ED4                     i1l2207:
  5075                           
  5076                           ;Li_ion_main.c: 574: void Display_Segment(char* Display_Array);Li_ion_main.c: 575: {;Li_
      +                          ion_main.c: 576:     static char count=1;;Li_ion_main.c: 577:     PORTB = 0;
  5077  0ED4  1283               	bcf	3,5	;RP0=0, select bank0
  5078  0ED5  1303               	bcf	3,6	;RP1=0, select bank0
  5079  0ED6  0186               	clrf	6	;volatile
  5080                           
  5081                           ;Li_ion_main.c: 578:     switch(count)
  5082  0ED7  2F4C               	goto	i1l2253
  5083  0ED8                     i1l2209:
  5084                           
  5085                           ;Li_ion_main.c: 581:     PORTC &= ~(1<<4);
  5086  0ED8  30EF               	movlw	239
  5087  0ED9  00FF               	movwf	btemp+1
  5088  0EDA  087F               	movf	btemp+1,w
  5089  0EDB  0587               	andwf	7,f	;volatile
  5090  0EDC                     i1l2211:
  5091                           
  5092                           ;Li_ion_main.c: 582:           if(Display_Array[0] != 0)
  5093  0EDC  0872               	movf	Display_Segment@Display_Array,w
  5094  0EDD  0084               	movwf	4
  5095  0EDE  1383               	bcf	3,7	;select IRP bank0
  5096  0EDF  0800               	movf	0,w
  5097  0EE0  1903               	btfsc	3,2
  5098  0EE1  2EE3               	goto	u216_21
  5099  0EE2  2EE4               	goto	u216_20
  5100  0EE3                     u216_21:
  5101  0EE3  2EEE               	goto	i1l2215
  5102  0EE4                     u216_20:
  5103  0EE4                     i1l2213:
  5104                           
  5105                           ;Li_ion_main.c: 583:           {;Li_ion_main.c: 584:      PORTB = Segment_Tab[Display_Ar
      +                          ray[0]];
  5106  0EE4  0872               	movf	Display_Segment@Display_Array,w
  5107  0EE5  0084               	movwf	4
  5108  0EE6  0800               	movf	0,w
  5109  0EE7  3E01               	addlw	low ((_Segment_Tab-__stringbase)| (0+32768))
  5110  0EE8  0084               	movwf	4
  5111  0EE9  158A  2000  158A   	fcall	stringdir
  5112  0EEC  0086               	movwf	6	;volatile
  5113                           
  5114                           ;Li_ion_main.c: 585:           }
  5115  0EED  2EF4               	goto	i1l2217
  5116  0EEE                     i1l2215:
  5117                           
  5118                           ;Li_ion_main.c: 587:           {;Li_ion_main.c: 588:               PORTB = Segment_Tab[2
      +                          3];
  5119  0EEE  3018               	movlw	low (((_Segment_Tab+23)-__stringbase)| (0+32768))
  5120  0EEF  0084               	movwf	4
  5121  0EF0  158A  2000  158A   	fcall	stringdir
  5122  0EF3  0086               	movwf	6	;volatile
  5123  0EF4                     i1l2217:
  5124                           
  5125                           ;Li_ion_main.c: 590:           count=2;
  5126  0EF4  3002               	movlw	2
  5127  0EF5  00FF               	movwf	btemp+1
  5128  0EF6  087F               	movf	btemp+1,w
  5129  0EF7  00FA               	movwf	Display_Segment@count
  5130  0EF8                     i1l2219:
  5131                           
  5132                           ;Li_ion_main.c: 591:           PORTC |= (1<<7);
  5133  0EF8  1787               	bsf	7,7	;volatile
  5134                           
  5135                           ;Li_ion_main.c: 592:           break;
  5136  0EF9  2F62               	goto	i1l230
  5137  0EFA                     i1l2221:
  5138                           
  5139                           ;Li_ion_main.c: 594:           PORTC &= ~(1<<7);
  5140  0EFA  307F               	movlw	127
  5141  0EFB  00FF               	movwf	btemp+1
  5142  0EFC  087F               	movf	btemp+1,w
  5143  0EFD  0587               	andwf	7,f	;volatile
  5144  0EFE                     i1l2223:
  5145                           
  5146                           ;Li_ion_main.c: 595:           PORTB = Segment_Tab[Display_Array[1]];
  5147  0EFE  0A72               	incf	Display_Segment@Display_Array,w
  5148  0EFF  0084               	movwf	4
  5149  0F00  1383               	bcf	3,7	;select IRP bank0
  5150  0F01  0800               	movf	0,w
  5151  0F02  3E01               	addlw	low ((_Segment_Tab-__stringbase)| (0+32768))
  5152  0F03  0084               	movwf	4
  5153  0F04  158A  2000  158A   	fcall	stringdir
  5154  0F07  0086               	movwf	6	;volatile
  5155  0F08                     i1l2225:
  5156                           
  5157                           ;Li_ion_main.c: 596:           PORTB |= (1<<2);
  5158  0F08  1506               	bsf	6,2	;volatile
  5159  0F09                     i1l2227:
  5160                           
  5161                           ;Li_ion_main.c: 597:           count=3;
  5162  0F09  3003               	movlw	3
  5163  0F0A  00FF               	movwf	btemp+1
  5164  0F0B  087F               	movf	btemp+1,w
  5165  0F0C  00FA               	movwf	Display_Segment@count
  5166  0F0D                     i1l2229:
  5167                           
  5168                           ;Li_ion_main.c: 598:           PORTC |= (1<<6);
  5169  0F0D  1707               	bsf	7,6	;volatile
  5170                           
  5171                           ;Li_ion_main.c: 599:           break;
  5172  0F0E  2F62               	goto	i1l230
  5173  0F0F                     i1l2231:
  5174                           
  5175                           ;Li_ion_main.c: 601:           PORTC &= ~(1<<6);
  5176  0F0F  30BF               	movlw	191
  5177  0F10  00FF               	movwf	btemp+1
  5178  0F11  087F               	movf	btemp+1,w
  5179  0F12  0587               	andwf	7,f	;volatile
  5180  0F13                     i1l2233:
  5181                           
  5182                           ;Li_ion_main.c: 602:           PORTB = Segment_Tab[Display_Array[2]];
  5183  0F13  0872               	movf	Display_Segment@Display_Array,w
  5184  0F14  3E02               	addlw	2
  5185  0F15  0084               	movwf	4
  5186  0F16  1383               	bcf	3,7	;select IRP bank0
  5187  0F17  0800               	movf	0,w
  5188  0F18  3E01               	addlw	low ((_Segment_Tab-__stringbase)| (0+32768))
  5189  0F19  0084               	movwf	4
  5190  0F1A  158A  2000  158A   	fcall	stringdir
  5191  0F1D  0086               	movwf	6	;volatile
  5192  0F1E                     i1l2235:
  5193                           
  5194                           ;Li_ion_main.c: 603:           count=4;
  5195  0F1E  3004               	movlw	4
  5196  0F1F  00FF               	movwf	btemp+1
  5197  0F20  087F               	movf	btemp+1,w
  5198  0F21  00FA               	movwf	Display_Segment@count
  5199  0F22                     i1l2237:
  5200                           
  5201                           ;Li_ion_main.c: 604:           PORTC |= (1<<5);
  5202  0F22  1687               	bsf	7,5	;volatile
  5203                           
  5204                           ;Li_ion_main.c: 605:           break;
  5205  0F23  2F62               	goto	i1l230
  5206  0F24                     i1l2239:
  5207                           
  5208                           ;Li_ion_main.c: 607:           PORTC &= ~(1<<5);
  5209  0F24  30DF               	movlw	223
  5210  0F25  00FF               	movwf	btemp+1
  5211  0F26  087F               	movf	btemp+1,w
  5212  0F27  0587               	andwf	7,f	;volatile
  5213  0F28                     i1l2241:
  5214                           
  5215                           ;Li_ion_main.c: 608:           if(SolarFlag==1)
  5216  0F28  0358               	decf	_SolarFlag,w
  5217  0F29  1D03               	btfss	3,2
  5218  0F2A  2F2C               	goto	u217_21
  5219  0F2B  2F2D               	goto	u217_20
  5220  0F2C                     u217_21:
  5221  0F2C  2F3A               	goto	i1l2245
  5222  0F2D                     u217_20:
  5223  0F2D                     i1l2243:
  5224                           
  5225                           ;Li_ion_main.c: 609:           {;Li_ion_main.c: 610:               PORTB = Segment_Tab[D
      +                          isplay_Array[3]] | (1<<3);
  5226  0F2D  0872               	movf	Display_Segment@Display_Array,w
  5227  0F2E  3E03               	addlw	3
  5228  0F2F  0084               	movwf	4
  5229  0F30  1383               	bcf	3,7	;select IRP bank0
  5230  0F31  0800               	movf	0,w
  5231  0F32  3E01               	addlw	low ((_Segment_Tab-__stringbase)| (0+32768))
  5232  0F33  0084               	movwf	4
  5233  0F34  158A  2000  158A   	fcall	stringdir
  5234  0F37  3808               	iorlw	8
  5235  0F38  0086               	movwf	6	;volatile
  5236                           
  5237                           ;Li_ion_main.c: 611:           }
  5238  0F39  2F45               	goto	i1l2247
  5239  0F3A                     i1l2245:
  5240                           
  5241                           ;Li_ion_main.c: 613:           {;Li_ion_main.c: 614:               PORTB = Segment_Tab[D
      +                          isplay_Array[3]];
  5242  0F3A  0872               	movf	Display_Segment@Display_Array,w
  5243  0F3B  3E03               	addlw	3
  5244  0F3C  0084               	movwf	4
  5245  0F3D  1383               	bcf	3,7	;select IRP bank0
  5246  0F3E  0800               	movf	0,w
  5247  0F3F  3E01               	addlw	low ((_Segment_Tab-__stringbase)| (0+32768))
  5248  0F40  0084               	movwf	4
  5249  0F41  158A  2000  158A   	fcall	stringdir
  5250  0F44  0086               	movwf	6	;volatile
  5251  0F45                     i1l2247:
  5252                           
  5253                           ;Li_ion_main.c: 616:           count=1;
  5254  0F45  01FA               	clrf	Display_Segment@count
  5255  0F46  0AFA               	incf	Display_Segment@count,f
  5256  0F47                     i1l2249:
  5257                           
  5258                           ;Li_ion_main.c: 617:           PORTC |= (1<<4);
  5259  0F47  1607               	bsf	7,4	;volatile
  5260                           
  5261                           ;Li_ion_main.c: 618:           break;
  5262  0F48  2F62               	goto	i1l230
  5263  0F49                     i1l229:	
  5264                           ;Li_ion_main.c: 619:         default:
  5265                           
  5266                           
  5267                           ;Li_ion_main.c: 620:           count = 1;
  5268  0F49  01FA               	clrf	Display_Segment@count
  5269  0F4A  0AFA               	incf	Display_Segment@count,f
  5270                           
  5271                           ;Li_ion_main.c: 621:           break;
  5272  0F4B  2F62               	goto	i1l230
  5273  0F4C                     i1l2253:
  5274  0F4C  087A               	movf	Display_Segment@count,w
  5275  0F4D  00F0               	movwf	??_Display_Segment
  5276  0F4E  01F1               	clrf	??_Display_Segment+1
  5277                           
  5278                           ; Switch on 2 bytes has been partitioned into a top level switch of size 1, and 1 sub-sw
      +                          itches
  5279                           ; Switch size 1, requested type "simple"
  5280                           ; Number of cases is 1, Range of values is 0 to 0
  5281                           ; switch strategies available:
  5282                           ; Name         Instructions Cycles
  5283                           ; simple_byte            4     3 (average)
  5284                           ; direct_byte            9     7 (fixed)
  5285                           ; jumptable            260     6 (fixed)
  5286                           ;	Chosen strategy is simple_byte
  5287  0F4F  0871               	movf	??_Display_Segment+1,w
  5288  0F50  3A00               	xorlw	0	; case 0
  5289  0F51  1903               	skipnz
  5290  0F52  2F54               	goto	i1l2945
  5291  0F53  2F49               	goto	i1l229
  5292  0F54                     i1l2945:
  5293                           
  5294                           ; Switch size 1, requested type "simple"
  5295                           ; Number of cases is 4, Range of values is 1 to 4
  5296                           ; switch strategies available:
  5297                           ; Name         Instructions Cycles
  5298                           ; simple_byte           13     7 (average)
  5299                           ; direct_byte           18    10 (fixed)
  5300                           ; jumptable            263     9 (fixed)
  5301                           ;	Chosen strategy is simple_byte
  5302  0F54  0870               	movf	??_Display_Segment,w
  5303  0F55  3A01               	xorlw	1	; case 1
  5304  0F56  1903               	skipnz
  5305  0F57  2ED8               	goto	i1l2209
  5306  0F58  3A03               	xorlw	3	; case 2
  5307  0F59  1903               	skipnz
  5308  0F5A  2EFA               	goto	i1l2221
  5309  0F5B  3A01               	xorlw	1	; case 3
  5310  0F5C  1903               	skipnz
  5311  0F5D  2F0F               	goto	i1l2231
  5312  0F5E  3A07               	xorlw	7	; case 4
  5313  0F5F  1903               	skipnz
  5314  0F60  2F24               	goto	i1l2239
  5315  0F61  2F49               	goto	i1l229
  5316  0F62                     i1l230:
  5317  0F62  0008               	return
  5318  0F63                     __end_of_Display_Segment:
  5319  007E                     btemp	set	126	;btemp
  5320  007E                     wtemp0	set	126
  5321                           
  5322                           	psect	config
  5323                           
  5324                           ;Config register CONFIG1 @ 0x2007
  5325                           ;	Oscillator Selection bits
  5326                           ;	FOSC = INTRC_NOCLKOUT, INTOSCIO oscillator: I/O function on RA6/OSC2/CLKOUT pin, I/O f
      +                          unction on RA7/OSC1/CLKIN
  5327                           ;	Watchdog Timer Enable bit
  5328                           ;	WDTE = OFF, WDT disabled and can be enabled by SWDTEN bit of the WDTCON register
  5329                           ;	Power-up Timer Enable bit
  5330                           ;	PWRTE = OFF, PWRT disabled
  5331                           ;	RE3/MCLR pin function select bit
  5332                           ;	MCLRE = OFF, RE3/MCLR pin function is digital input, MCLR internally tied to VDD
  5333                           ;	Code Protection bit
  5334                           ;	CP = OFF, Program memory code protection is disabled
  5335                           ;	Data Code Protection bit
  5336                           ;	CPD = OFF, Data memory code protection is disabled
  5337                           ;	Brown Out Reset Selection bits
  5338                           ;	BOREN = ON, BOR enabled
  5339                           ;	Internal External Switchover bit
  5340                           ;	IESO = ON, Internal/External Switchover mode is enabled
  5341                           ;	Fail-Safe Clock Monitor Enabled bit
  5342                           ;	FCMEN = ON, Fail-Safe Clock Monitor is enabled
  5343                           ;	Low Voltage Programming Enable bit
  5344                           ;	LVP = OFF, RB3 pin has digital I/O, HV on MCLR must be used for programming
  5345                           ;	In-Circuit Debugger Mode bit
  5346                           ;	DEBUG = 0x1, unprogrammed default
  5347  2007                     	org	8199
  5348  2007  2FD4               	dw	12244
  5349                           
  5350                           ;Config register CONFIG2 @ 0x2008
  5351                           ;	Brown-out Reset Selection bit
  5352                           ;	BOR4V = BOR40V, Brown-out Reset set to 4.0V
  5353                           ;	Flash Program Memory Self Write Enable bits
  5354                           ;	WRT = OFF, Write protection off
  5355  2008                     	org	8200
  5356  2008  3FFF               	dw	16383

Data Sizes:
    Strings     0
    Constant    24
    Data        17
    BSS         19
    Persistent  0
    Stack       0

Auto Spaces:
    Space          Size  Autos    Used
    COMMON           14      7      14
    BANK0            80     46      75
    BANK1            80      0       0
    BANK2            80      0       0

Pointer List with Targets:

    PWM_Init@PWMData	PTR struct . size(1) Largest target is 5
		 -> PWM_1(BANK0[5]), 

    Data2Array@d_Array	PTR unsigned char  size(1) Largest target is 4
		 -> Display_Array(BANK0[4]), 

    Display_Segment@Display_Array	PTR unsigned char  size(1) Largest target is 4
		 -> Display_Array(BANK0[4]), 


Critical Paths under _main in COMMON

    None.

Critical Paths under _ISR in COMMON

    _ISR->_Display_Segment

Critical Paths under _main in BANK0

    _main->_PWM_Init
    _WaitCharge_Function->___aldiv
    _VoltCharge_Function->___aldiv
    _PWM_Init->___aldiv
    _FullCharge_Function->___aldiv
    _CurrentCharge_Function->___aldiv
    ___lldiv->___lmul
    ___aldiv->___lmul

Critical Paths under _ISR in BANK0

    None.

Critical Paths under _main in BANK1

    None.

Critical Paths under _ISR in BANK1

    None.

Critical Paths under _main in BANK2

    None.

Critical Paths under _ISR in BANK2

    None.

Call Graph Tables:

 ---------------------------------------------------------------------------------
 (Depth) Function   	        Calls       Base Space   Used Autos Params    Refs
 ---------------------------------------------------------------------------------
 (0) _main                                                 2     2      0   23679
                                             44 BANK0      2     2      0
             _CurrentCharge_Function
                _FullCharge_Function
                           _PWM_Init
                          _PWM_Start
                         _TIM0_Start
                          _TIM0_init
                _VoltCharge_Function
                _WaitCharge_Function
 ---------------------------------------------------------------------------------
 (1) _WaitCharge_Function                                  6     6      0    4171
                                             28 BANK0      6     6      0
                         _Data2Array
                            ___aldiv
                             ___lmul
 ---------------------------------------------------------------------------------
 (1) _VoltCharge_Function                                 14    14      0    5458
                                             28 BANK0     14    14      0
                         _Data2Array
                            ___aldiv
                            ___lldiv
                             ___lmul
 ---------------------------------------------------------------------------------
 (1) _TIM0_init                                            0     0      0       0
 ---------------------------------------------------------------------------------
 (1) _TIM0_Start                                           0     0      0       0
 ---------------------------------------------------------------------------------
 (1) _PWM_Start                                            0     0      0       0
 ---------------------------------------------------------------------------------
 (1) _PWM_Init                                            16    16      0    4421
                                             28 BANK0     16    16      0
                            ___aldiv
                            ___lldiv
                             ___lmul
 ---------------------------------------------------------------------------------
 (1) _FullCharge_Function                                  6     6      0    4171
                                             28 BANK0      6     6      0
                         _Data2Array
                            ___aldiv
                             ___lmul
 ---------------------------------------------------------------------------------
 (1) _CurrentCharge_Function                              14    14      0    5458
                                             28 BANK0     14    14      0
                         _Data2Array
                            ___aldiv
                            ___lldiv
                             ___lmul
 ---------------------------------------------------------------------------------
 (2) ___lmul                                              13     5      8    1612
                                              0 BANK0     13     5      8
 ---------------------------------------------------------------------------------
 (2) ___lldiv                                             14     6      8    1074
                                             13 BANK0     14     6      8
                             ___lmul (ARG)
 ---------------------------------------------------------------------------------
 (2) ___aldiv                                             15     7      8    1364
                                             13 BANK0     15     7      8
                             ___lmul (ARG)
 ---------------------------------------------------------------------------------
 (2) _Data2Array                                           3     1      2    1010
                                              0 BANK0      3     1      2
 ---------------------------------------------------------------------------------
 Estimated maximum stack depth 2
 ---------------------------------------------------------------------------------
 (Depth) Function   	        Calls       Base Space   Used Autos Params    Refs
 ---------------------------------------------------------------------------------
 (3) _ISR                                                  4     4      0     165
                                              3 COMMON     4     4      0
                    _Display_Segment
 ---------------------------------------------------------------------------------
 (5) _Display_Segment                                      3     3      0     165
                                              0 COMMON     3     3      0
 ---------------------------------------------------------------------------------
 Estimated maximum stack depth 5
 ---------------------------------------------------------------------------------

 Call Graph Graphs:

 _main (ROOT)
   _CurrentCharge_Function
     _Data2Array
     ___aldiv
       ___lmul (ARG)
     ___lldiv
       ___lmul (ARG)
     ___lmul
   _FullCharge_Function
     _Data2Array
     ___aldiv
       ___lmul (ARG)
     ___lmul
   _PWM_Init
     ___aldiv
       ___lmul (ARG)
     ___lldiv
       ___lmul (ARG)
     ___lmul
   _PWM_Start
   _TIM0_Start
   _TIM0_init
   _VoltCharge_Function
     _Data2Array
     ___aldiv
       ___lmul (ARG)
     ___lldiv
       ___lmul (ARG)
     ___lmul
   _WaitCharge_Function
     _Data2Array
     ___aldiv
       ___lmul (ARG)
     ___lmul

 _ISR (ROOT)
   _Display_Segment

 Address spaces:
Name               Size   Autos  Total    Cost      Usage
SFR3                 0      0       0       4        0.0%
BITSFR3              0      0       0       4        0.0%
BANK2               50      0       0       7        0.0%
BITBANK2            50      0       0       6        0.0%
SFR2                 0      0       0       5        0.0%
BITSFR2              0      0       0       5        0.0%
BANK1               50      0       0       5        0.0%
BITBANK1            50      0       0       4        0.0%
SFR1                 0      0       0       2        0.0%
BITSFR1              0      0       0       2        0.0%
BANK0               50     2E      4B       3       93.8%
BITBANK0            50      0       0       9        0.0%
SFR0                 0      0       0       1        0.0%
BITSFR0              0      0       0       1        0.0%
COMMON               E      7       E       1      100.0%
BITCOMMON            E      0       0       0        0.0%
CODE                 0      0       0       0        0.0%
DATA                 0      0      59      10        0.0%
ABS                  0      0      59       8        0.0%
NULL                 0      0       0       0        0.0%
STACK                0      0       0       2        0.0%
EEDATA             100      0       0       0        0.0%


Microchip Technology PIC Macro Assembler V2.20 build 20200408173844 
Symbol Table                                                                                   Mon May 11 11:18:34 2026

                                  pc 0002                                   l91 05DF  
                                 l94 05F1                                   l96 05F2  
                                 fsr 0004                           _Data2Array 0DC9  
                                l113 02B6                                  l123 03C0  
                                l116 02C7                                  l205 05BB  
                                l109 06B8                                  l126 03C8  
                                l118 02C8                                  l128 03C9  
                                l152 006E                                  l145 04AF  
                                l161 0132                                  l154 006F  
                                l251 0D76                       Data2Array@data 0020  
                                l413 07E9                                  l149 005D  
                                l182 0291                                  l239 0E06  
                                l191 04E4                                  l159 0131  
                                l280 07A1                                  l248 07FC  
                                l186 04D3                                  l435 0ED2  
                                l283 0D61                                  l189 04E3  
                                l464 0F77                                  l474 0FFF  
                                _PR2 0092                                  _ISR 0D95  
                                fsr0 0004                                  indf 0000  
                               ?_ISR 0070                                 l2411 0DD1  
                               l2421 0DF0                                 l2413 0DD7  
                               l1701 0E89                                 l2501 0292  
                               l2423 0DF6                                 l2415 0DDD  
                               l1711 0EBA                                 l1703 0E8D  
                               l2511 02BF                                 l2503 029C  
                               l2431 0D72                                 l2425 0DFF  
                               l2417 0DE6                                 l2409 0DCC  
                               l1721 0F63                                 l1713 0EBB  
                               l1705 0E91                                 l2601 0451  
                               l2513 02C3                                 l2505 02A8  
                               l1801 079B                                 l2433 0D73  
                               l2441 05D1                                 l2419 0DEA  
                               l1731 0F8A                                 l1723 0F66  
                               l1715 0EC4                                 l1707 0E9A  
                               l2611 0476                                 l2603 045A  
                               l2531 02FC                                 l2523 02CC  
                               l2515 02C4                                 l2507 02BA  
                               l2435 0D5E                                 l2427 07EA  
                               l2451 05EE                                 l2443 05E3  
                               l1741 0FAA                                 l1733 0F92  
                               l1725 0F6A                                 l1709 0EAC  
                               l1717 0ECA                                 l2621 0492  
                               l2613 047B                                 l2605 045F  
                               l2541 0345                                 l2533 0300  
                               l2525 02DF                                 l2517 02C6  
                               l2509 02BD                                 l2429 0D6E  
                               l2701 0170                                 l2461 0609  
                               l2453 05F0                                 l2445 05E8  
                               l2437 05BC                                 l1751 0FD8  
                               l1743 0FAE                                 l1735 0F9A  
                               l1727 0F7B                                 l2623 049B  
                               l2615 0484                                 l2607 0468  
                               l2551 038D                                 l2543 0373  
                               l2535 0306                                 l2527 02E5  
                               l2711 01BD                                 l2703 0171  
                               l2631 0043                                 l2471 0630  
                               l2463 060F                                 l2447 05E9  
                               l2439 05C5                                 l1753 0FE1  
                               l1745 0FB7                                 l1737 0F9D  
                               l1729 0F86                                 l1681 07A2  
                               l2625 04A0                                 l2617 0489  
                               l2609 046D                                 l2553 0399  
                               l2545 0375                                 l2537 0307  
                               l2529 02EB                                 l2801 051C  
                               l2721 01EF                                 l2713 01C6  
                               l2705 017F                                 l2641 006A  
                               l2633 004F                                 l2473 0631  
                               l2481 0677                                 l2465 0615  
                               l2449 05ED                                 l1747 0FC9  
                               l1739 0FA6                                 l1755 0FE7  
                               l1691 07E1                                 l1683 07AC  
                               l2619 048D                                 l2571 03C7  
                               l2547 037E                                 l2555 03A7  
                               l2539 0315                                 l2627 04A8  
                               l2811 0565                                 l2803 0522  
                               l1771 06BC                                 l2731 0208  
                               l2723 01F8                                 l2715 01CC  
                               l2707 01AB                                 l2651 0073  
                               l2643 006B                                 l2635 0061  
                               l2491 069C                                 l2483 0680  
                               l2475 063F                                 l2467 0626  
                               l2459 05F6                                 l1757 0FEC  
                               l1749 0FD7                                 l1685 07B0  
                               l2581 03E6                                 l2557 03B0  
                               l2549 0387                                 l2565 03C0  
                               l2821 0582                                 l2805 0523  
                               l2813 0569                                 l1781 072C  
                               l1773 06C8                                 l2733 0211  
                               l2717 01D8                                 l2709 01B4  
                               l2741 0232                                 l2661 00A7  
                               l2653 0086                                 l2645 006D  
                               l2637 0064                                 l2629 003B  
                               l2493 06A1                                 l2485 0685  
                               l2477 066B                                 l2469 062A  
                               l1759 0FF7                                 l1695 0E6B  
                               l1687 07C7                                 l2591 0408  
                               l2583 03EC                                 l2567 03C4  
                               l2559 03B9                                 l2831 05A3  
                               l2823 0587                                 l2815 0572  
                               l2807 0531                                 l1791 0744  
                               l2751 0257                                 l2743 023B  
                               l2735 0217                                 l2719 01E6  
                               l2671 011A                                 l2663 00AD  
                               l2655 008C                                 l2639 0066  
                               l2495 06AA                                 l2487 068E  
                               l2479 0673                                 l1697 0E7D  
                               l1689 07D0                                 l2593 0416  
                               l2585 03FD                                 l2577 03CD  
                               l2569 03C5                                 l2833 05AC  
                               l2825 0590                                 l2817 0577  
                               l2809 055D                                 l1793 074C  
                               l1785 0736                                 l2761 0273  
                               l2753 025C                                 l2745 0240  
                               l2737 0223                                 l2729 01FF  
                               l2681 012E                                 l2673 011C  
                               l2665 00AE                                 l2657 0092  
                               l2497 06AF                                 l2489 0693  
                               l2841 0E0D                                 l1699 0E80  
                               l2595 0442                                 l2587 0401  
                               l2579 03E0                                 l2835 05B1  
                               l2827 0595                                 l2819 0579  
                               l2771 04B9                                 l1795 0754  
                               l1787 073A                                 l1779 06C9  
                               l2763 027C                                 l2755 0265  
                               l2747 0249                                 l2739 0230  
                               l2691 0149                                 l2683 0130  
                               l2675 0125                                 l2667 00BC  
                               l2659 00A3                                 l2499 06B3  
                               l2851 0E1B                                 l2843 0E10  
                               l2597 044B                                 l2589 0407  
                               l2829 059E                                 l2781 04DF  
                               l2837 05B5                                 l2773 04C5  
                               l1797 0774                                 l1789 0740  
                               l2765 0281                                 l2757 026A  
                               l2749 024E                                 l2693 014F  
                               l2669 00EC                                 l2677 0129  
                               l2861 0E2A                                 l2853 0E1C  
                               l2845 0E13                                 l2599 044F  
                               l2791 04E8                                 l2783 04E0  
                               l2775 04D7                                 l1799 077B  
                               l2759 026E                                 l2695 0155  
                               l2679 012D                                 l2767 0289  
                               l2943 0E5B                                 l2871 0E38  
                               l2863 0E2D                                 l2855 0E22  
                               l2847 0E17                                 l2839 0E07  
                               l2793 04FB                                 l2785 04E2  
                               l2777 04DA                                 l2769 04B0  
                               l2697 0166                                 l2689 0136  
                               l2881 0E4C                                 l2873 0E3C  
                               l2865 0E30                                 l2857 0E25  
                               l2849 0E18                                 l2795 0501  
                               l2779 04DB                                 l2699 016A  
                               l2883 0E50                                 l2875 0E40  
                               l2867 0E32                                 l2859 0E29  
                               l2797 0507                                 l2877 0E44  
                               l2869 0E36                                 l2799 0518  
                               l2879 0E48                                 l2887 0E51  
                               u1200 0E7D                                 u1201 0E7C  
                               u1220 0E91                                 u1221 0E90  
                               u1310 0FAE                                 u1150 07B0  
                               u1311 0FAD                                 u1215 0E82  
                               u1151 07AF                                 u1240 0EAC  
                               u1305 0F9F                                 u1241 0EAB  
                               u1161 07B9                                 u1330 0FC9  
                               u1162 07C0                                 u1331 0FC8  
                               u1235 0E93                                 u1163 07C7  
                               u2220 0DE6                                 u1260 0ECA  
                               u2300 0680                                 u2221 0DE5  
                               u1325 0FB0                                 u1261 0EC9  
                               u1245 0EA8                                 u1405 076B  
                               u2301 067F                                 u2230 0DFF  
                               u1350 0FE7                                 u1270 0F6A  
                               u1190 07E1                                 u2310 068E  
                               u2231 0DFE                                 u1351 0FE6  
                               u1335 0FC5                                 u1271 0F69  
                               u1255 0EBC                                 u1191 07E0  
                               u1175 07C9                                 u1415 0792  
                               u3007 0144                                 u2311 068D  
                               u1360 0FEC                                 u1280 0F7B  
                               u2400 0306                                 u2320 069C  
                               u1361 0FEB                                 u1345 0FD9  
                               u1281 0F7A                                 u1185 07D1  
                               u2401 0305                                 u3017 04F6  
                               u2321 069B                                 u1290 0F9A  
                               u2410 037E                                 u1370 0735  
                               u2330 06AA                                 u2250 05E3  
                               u1291 0F99                                 u2411 037D  
                               u3027 02DA                                 u1371 0734  
                               u2331 06A9                                 u2251 05E2  
                               u2500 044B                                 u2420 0387  
                               u1380 0740                                 u2340 06B8  
                               u2260 05F6                                 u2501 044A  
                               u3037 03DB                                 u2421 0386  
                               u1381 073F                                 u2341 06B7  
                               u2261 05F5                                 u2245 05D5  
                               u2510 045A                                 u1390 0754  
                               u2270 0615                                 u2511 0459  
                               u1391 0753                                 u2271 0614  
                               u2520 0468                                 u2440 03B0  
                               u2360 02BA                                 u2600 0073  
                               u2521 0467                                 u2441 03AF  
                               u2361 02B9                                 u2601 0072  
                               u2530 0476                                 u2450 03B9  
                               u2370 02CC                                 u2610 0092  
                               u2290 0630                                 u2531 0475  
                               u2451 03B8                                 u2435 039D  
                               u2371 02CB                                 u2355 02AC  
                               u2611 0091                                 u2291 062F  
                               u2540 0484                                 u2460 03CD  
                               u2380 02EB                                 u2700 01BD  
                               u2541 0483                                 u2461 03CC  
                               u2381 02EA                                 u2701 01BC  
                               u2285 061A                                 u2550 0492  
                               u2470 03EC                                 u2710 01C6  
                               u2630 00AD                                 u2551 0491  
                               u2471 03EB                                 u2711 01C5  
                               u2631 00AC                                 u2560 04A0  
                               u2800 0257                                 u2640 0125  
                               u2561 049F                                 u2801 0256  
                               u2641 0124                                 u2625 0097  
                               u2570 04AF                                 u2490 0407  
                               u2810 0265                                 u2730 01EF  
                               u2650 0136                                 u2571 04AE  
                               u2491 0406                                 u2395 02F0  
                               u2811 0264                                 u2731 01EE  
                               u2651 0135                                 u2900 0522  
                               u2820 0273                                 u2740 01F8  
                               u2660 0155                                 u2485 03F1  
                               u2901 0521                                 u2821 0272  
                               u2741 01F7                                 u2725 01DC  
                               u2661 0154                                 u2910 0572  
                               u2830 0281                                 u2750 0208  
                               u2590 0061                                 u2911 0571  
                               u2831 0280                                 u2751 0207  
                               u2591 0060                                 u2920 0577  
                               u2840 0291                                 u2760 0211  
                               u2680 0170                                 u2921 0576  
                               u2841 0290                                 u2761 0210  
                               u2681 016F                                 u2585 0053  
                               u2930 0582                                 u2690 01B4  
                               u2931 0581                                 u2691 01B3  
                               u2675 015A                                 u2940 0590  
                               u2860 04D7                                 u2780 023B  
                               u2941 058F                                 u2861 04D6  
                               u2781 023A                                 u2950 059E  
                               u2870 04E8                                 u2790 0249  
                               u2951 059D                                 u2871 04E7  
                               u2855 04C9                                 u2791 0248  
                               u2775 0227                                 u2960 05AC  
                               u2880 0507                                 u2961 05AB  
                               u2881 0506                                 u2970 05BB  
                               u2971 05BA                                 u2895 050C  
                               u2987 0604                                 u2997 0081  
                               _TMR0 0001                                 _Flag 007D  
                               _main 0E07                                 btemp 007E  
                               start 0011                                ??_ISR 0073  
                        ?_TIM0_Start 0070            VoltCharge_Function@A_To_V 003E  
                    __end_of___aldiv 1000                                ?_main 0070  
                              _ANSEL 0188                      __end_of___lldiv 0ED3  
                              _T2CON 0012                                i1l230 0F62  
                              i1l214 0DBC                                i1l229 0F49  
                              _PORTB 0006                                _PORTC 0007  
                 __size_of_TIM0_init 0013                                _TRISA 0085  
                              _PWM_1 0059                                _TRISB 0086  
                              _TRISC 0087                  ___lmul@multiplicand 0024  
                              _State 0057                                pclath 000A  
                   __end_of_PWM_Init 07A2                                status 0003  
                              wtemp0 007E                   __size_of_PWM_Start 0004  
                    __initialization 0013                         __end_of_main 0E6B  
                        ?_Data2Array 0020                               ??_main 004C  
                  Data2Array@d_Array 0022          __end_of_FullCharge_Function 05BC  
                             _ADCON0 001F                               _ADCON1 009F  
      FullCharge_Function@Volt_Value 0040                  _WaitCharge_Function 05BC  
                             _ADRESH 001E                               _ADRESL 009E  
                             _CCPR1L 0015                               _CCPR2L 001B  
                             _ANSELH 0189                               i1l2211 0EDC  
                             i1l2221 0EFA                               i1l2213 0EE4  
                             i1l2231 0F0F                               i1l2223 0EFE  
                             i1l2215 0EEE                               i1l2207 0ED4  
                             i1l2241 0F28                               i1l2233 0F13  
                             i1l2225 0F08                               i1l2217 0EF4  
                             i1l2209 0ED8                               i1l2321 0DA1  
                             i1l2243 0F2D                               i1l2235 0F1E  
                             i1l2227 0F09                               i1l2219 0EF8  
                             i1l2323 0DA7                               i1l2315 0D95  
                             i1l2245 0F3A                               i1l2237 0F22  
                             i1l2229 0F0D                               i1l2253 0F4C  
                             i1l2325 0DB4                               i1l2317 0D99  
                             i1l2247 0F45                               i1l2239 0F24  
                             i1l2327 0DB6                               i1l2319 0D9D  
                             i1l2249 0F47                               i1l2945 0F54  
                __size_of_TIM0_Start 0009                               u216_20 0EE4  
                             u216_21 0EE3                               u217_20 0F2D  
                             _INTCON 000B                               u217_21 0F2C  
                             u218_20 0D99                               u218_21 0D98  
                             u219_20 0DB4                               u219_21 0DB3  
                             u219_25 0DB0         __size_of_VoltCharge_Function 0257  
                  __end_of_TIM0_init 07FD                               ___lmul 07A2  
                          ??___aldiv 0035                 ?_WaitCharge_Function 0070  
                          ??___lldiv 0035                         PWM_Init@Fclk 0044  
                       __pdataCOMMON 0077                      _Display_Current 004E  
                  __end_of_PWM_Start 0D62                               saved_w 007E  
                    _Display_Segment 0ED3     VoltCharge_Function@Current_Value 0048  
                __end_of_Segment_Tab 081E              __end_of__initialization 0038  
           VoltCharge_Function@i_141 0045                  __size_of_Data2Array 003E  
               WaitCharge_Function@i 003F                 VoltCharge_Function@i 0044  
                     __pcstackCOMMON 0070                ??_WaitCharge_Function 003C  
                       __pidataBANK0 0D77                            ?_PWM_Init 0070  
                         __pbssBANK0 004E       FullCharge_Function@Total_Count 003E  
      VoltCharge_Function@Volt_Value 0046                           __pmaintext 0E07  
                            ?___lmul 0020                         ??_TIM0_Start 0020  
                         __pintentry 0004                              _CCP1CON 0017  
                            _CCP2CON 001D                       ___lmul@product 0029  
              PWM_SetFrequency@F1247 0077                PWM_SetFrequency@F1249 005E  
       CurrentCharge_Function@A_To_V 003E              __end_of_Display_Segment 0F63  
           ??_CurrentCharge_Function 003C                           ??_PWM_Init 003C  
                  PWM_Init@presc_val 0041                          _Segment_Tab 0806  
                         __stringtab 0800                   __end_of_TIM0_Start 0D77  
        CurrentCharge_Function@i_133 0045                              ___aldiv 0F63  
                       _Display_Volt 0050                      __size_of___lmul 0048  
                            ___lldiv 0E6B                         ??_Data2Array 0022  
                            __ptext1 05BC                              __ptext2 003B  
                            __ptext3 07EA                              __ptext4 0D6E  
                            __ptext5 0D5E                              __ptext6 06B9  
                            __ptext7 04B0                              __ptext8 0292  
                            __ptext9 07A2                         __size_of_ISR 0034  
                _VoltCharge_Function 003B                     ___aldiv@dividend 0031  
                      PWM_Init@F1231 0064                        PWM_Init@F1233 0061  
                            clrloop0 0D67                 end_of_initialization 0038  
               ?_VoltCharge_Function 0070                   __end_of_Data2Array 0E07  
                      PWM_Init@index 004A                        PWM_Init@presc 003E  
                    ___lldiv@divisor 002D                      ___lldiv@counter 003A  
                   ___aldiv@quotient 0038                            _TIM0_init 07EA  
                   ?_Display_Segment 0070      __size_of_CurrentCharge_Function 021E  
                          _PWM_Value 0054                            _PWM_Start 0D5E  
               Display_Segment@count 007A                ??_VoltCharge_Function 003C  
       __size_of_FullCharge_Function 010C  CurrentCharge_Function@Current_Value 0048  
                         ?_TIM0_init 0070                       __end_of___lmul 07EA  
                      __pidataCOMMON 0D62                    __size_of_PWM_Init 00E9  
                start_initialization 0013                          __end_of_ISR 0DC9  
                         ?_PWM_Start 0070               _CurrentCharge_Function 0292  
        __end_of_WaitCharge_Function 06B9                 FullCharge_Function@i 003F  
                           ??___lmul 0028                           init_fetch0 0D84  
                     _Display_Change 0056                            _SolarFlag 0058  
                        __pdataBANK0 005E       VoltCharge_Function@Total_Count 0042  
                        __pbssCOMMON 007B                            ___latbits 0001  
                      __pcstackBANK0 0020                             ?___aldiv 002D  
                        ??_TIM0_init 0020                             ?___lldiv 002D  
                          __pstrings 0800    CurrentCharge_Function@Total_Count 0042  
      CurrentCharge_Function@C_Count 0043                          ??_PWM_Start 0020  
                           _AD_Value 0052                      ___aldiv@divisor 002D  
                  interrupt_function 0004                      ___aldiv@counter 0036  
                          clear_ram0 0D66           VoltCharge_Function@C_Count 0043  
                        __stringbase 0805                             _PWM_Init 06B9  
                _FullCharge_Function 04B0                      PWM_Init@PR2_Val 0048  
                  ___lmul@multiplier 0020                      PWM_Init@PWMData 004B  
               ?_FullCharge_Function 0070                        _Display_Array 0067  
                   __size_of___aldiv 009D                     __size_of___lldiv 0068  
                 __end_of__stringtab 0806                             __ptext10 0E6B  
                           __ptext11 0F63                             __ptext12 0DC9  
                           __ptext13 0D95                             __ptext14 0ED3  
        __end_of_VoltCharge_Function 0292             __size_of_Display_Segment 0090  
            ?_CurrentCharge_Function 0070                ??_FullCharge_Function 003C  
                      __size_of_main 0064     CurrentCharge_Function@Volt_Value 0046  
                   ISR@Display_Count 007B       __end_of_CurrentCharge_Function 04B0  
                           init_ram0 0D88              CurrentCharge_Function@i 0044  
       Display_Segment@Display_Array 0072                             intlevel1 0000  
                   ___lldiv@dividend 0031       WaitCharge_Function@Total_Count 003E  
                          stringcode 0800         __size_of_WaitCharge_Function 00FD  
                         _TIM0_Start 0D6E                           _OPTION_REG 0081  
                   ___lldiv@quotient 0036                             stringdir 0800  
                           stringtab 0800                         ___aldiv@sign 0037  
      WaitCharge_Function@Volt_Value 0040                    ??_Display_Segment 0070  
